
bomb：     文件格式 elf32-i386


Disassembly of section .init:

08048724 <_init>:
 8048724:	53                   	push   %ebx
 8048725:	83 ec 08             	sub    $0x8,%esp
 8048728:	e8 00 00 00 00       	call   804872d <_init+0x9>
 804872d:	5b                   	pop    %ebx
 804872e:	81 c3 c7 38 00 00    	add    $0x38c7,%ebx
 8048734:	8b 83 fc ff ff ff    	mov    -0x4(%ebx),%eax
 804873a:	85 c0                	test   %eax,%eax
 804873c:	74 05                	je     8048743 <_init+0x1f>
 804873e:	e8 ed 00 00 00       	call   8048830 <__gmon_start__@plt>
 8048743:	e8 78 02 00 00       	call   80489c0 <frame_dummy>
 8048748:	e8 03 19 00 00       	call   804a050 <__do_global_ctors_aux>
 804874d:	83 c4 08             	add    $0x8,%esp
 8048750:	5b                   	pop    %ebx
 8048751:	c3                   	ret    

Disassembly of section .plt:

08048760 <read@plt-0x10>:
 8048760:	ff 35 f8 bf 04 08    	pushl  0x804bff8
 8048766:	ff 25 fc bf 04 08    	jmp    *0x804bffc
 804876c:	00 00                	add    %al,(%eax)
	...

08048770 <read@plt>:
 8048770:	ff 25 00 c0 04 08    	jmp    *0x804c000
 8048776:	68 00 00 00 00       	push   $0x0
 804877b:	e9 e0 ff ff ff       	jmp    8048760 <_init+0x3c>

08048780 <fflush@plt>:
 8048780:	ff 25 04 c0 04 08    	jmp    *0x804c004
 8048786:	68 08 00 00 00       	push   $0x8
 804878b:	e9 d0 ff ff ff       	jmp    8048760 <_init+0x3c>

08048790 <fgets@plt>:
 8048790:	ff 25 08 c0 04 08    	jmp    *0x804c008
 8048796:	68 10 00 00 00       	push   $0x10
 804879b:	e9 c0 ff ff ff       	jmp    8048760 <_init+0x3c>

080487a0 <signal@plt>:
 80487a0:	ff 25 0c c0 04 08    	jmp    *0x804c00c
 80487a6:	68 18 00 00 00       	push   $0x18
 80487ab:	e9 b0 ff ff ff       	jmp    8048760 <_init+0x3c>

080487b0 <sleep@plt>:
 80487b0:	ff 25 10 c0 04 08    	jmp    *0x804c010
 80487b6:	68 20 00 00 00       	push   $0x20
 80487bb:	e9 a0 ff ff ff       	jmp    8048760 <_init+0x3c>

080487c0 <alarm@plt>:
 80487c0:	ff 25 14 c0 04 08    	jmp    *0x804c014
 80487c6:	68 28 00 00 00       	push   $0x28
 80487cb:	e9 90 ff ff ff       	jmp    8048760 <_init+0x3c>

080487d0 <__stack_chk_fail@plt>:
 80487d0:	ff 25 18 c0 04 08    	jmp    *0x804c018
 80487d6:	68 30 00 00 00       	push   $0x30
 80487db:	e9 80 ff ff ff       	jmp    8048760 <_init+0x3c>

080487e0 <strcpy@plt>:
 80487e0:	ff 25 1c c0 04 08    	jmp    *0x804c01c
 80487e6:	68 38 00 00 00       	push   $0x38
 80487eb:	e9 70 ff ff ff       	jmp    8048760 <_init+0x3c>

080487f0 <getenv@plt>:
 80487f0:	ff 25 20 c0 04 08    	jmp    *0x804c020
 80487f6:	68 40 00 00 00       	push   $0x40
 80487fb:	e9 60 ff ff ff       	jmp    8048760 <_init+0x3c>

08048800 <puts@plt>:
 8048800:	ff 25 24 c0 04 08    	jmp    *0x804c024
 8048806:	68 48 00 00 00       	push   $0x48
 804880b:	e9 50 ff ff ff       	jmp    8048760 <_init+0x3c>

08048810 <__memmove_chk@plt>:
 8048810:	ff 25 28 c0 04 08    	jmp    *0x804c028
 8048816:	68 50 00 00 00       	push   $0x50
 804881b:	e9 40 ff ff ff       	jmp    8048760 <_init+0x3c>

08048820 <__memcpy_chk@plt>:
 8048820:	ff 25 2c c0 04 08    	jmp    *0x804c02c
 8048826:	68 58 00 00 00       	push   $0x58
 804882b:	e9 30 ff ff ff       	jmp    8048760 <_init+0x3c>

08048830 <__gmon_start__@plt>:
 8048830:	ff 25 30 c0 04 08    	jmp    *0x804c030
 8048836:	68 60 00 00 00       	push   $0x60
 804883b:	e9 20 ff ff ff       	jmp    8048760 <_init+0x3c>

08048840 <exit@plt>:
 8048840:	ff 25 34 c0 04 08    	jmp    *0x804c034
 8048846:	68 68 00 00 00       	push   $0x68
 804884b:	e9 10 ff ff ff       	jmp    8048760 <_init+0x3c>

08048850 <__libc_start_main@plt>:
 8048850:	ff 25 38 c0 04 08    	jmp    *0x804c038
 8048856:	68 70 00 00 00       	push   $0x70
 804885b:	e9 00 ff ff ff       	jmp    8048760 <_init+0x3c>

08048860 <write@plt>:
 8048860:	ff 25 3c c0 04 08    	jmp    *0x804c03c
 8048866:	68 78 00 00 00       	push   $0x78
 804886b:	e9 f0 fe ff ff       	jmp    8048760 <_init+0x3c>

08048870 <__isoc99_sscanf@plt>:
 8048870:	ff 25 40 c0 04 08    	jmp    *0x804c040
 8048876:	68 80 00 00 00       	push   $0x80
 804887b:	e9 e0 fe ff ff       	jmp    8048760 <_init+0x3c>

08048880 <fopen@plt>:
 8048880:	ff 25 44 c0 04 08    	jmp    *0x804c044
 8048886:	68 88 00 00 00       	push   $0x88
 804888b:	e9 d0 fe ff ff       	jmp    8048760 <_init+0x3c>

08048890 <__errno_location@plt>:
 8048890:	ff 25 48 c0 04 08    	jmp    *0x804c048
 8048896:	68 90 00 00 00       	push   $0x90
 804889b:	e9 c0 fe ff ff       	jmp    8048760 <_init+0x3c>

080488a0 <__printf_chk@plt>:
 80488a0:	ff 25 4c c0 04 08    	jmp    *0x804c04c
 80488a6:	68 98 00 00 00       	push   $0x98
 80488ab:	e9 b0 fe ff ff       	jmp    8048760 <_init+0x3c>

080488b0 <socket@plt>:
 80488b0:	ff 25 50 c0 04 08    	jmp    *0x804c050
 80488b6:	68 a0 00 00 00       	push   $0xa0
 80488bb:	e9 a0 fe ff ff       	jmp    8048760 <_init+0x3c>

080488c0 <__fprintf_chk@plt>:
 80488c0:	ff 25 54 c0 04 08    	jmp    *0x804c054
 80488c6:	68 a8 00 00 00       	push   $0xa8
 80488cb:	e9 90 fe ff ff       	jmp    8048760 <_init+0x3c>

080488d0 <gethostbyname@plt>:
 80488d0:	ff 25 58 c0 04 08    	jmp    *0x804c058
 80488d6:	68 b0 00 00 00       	push   $0xb0
 80488db:	e9 80 fe ff ff       	jmp    8048760 <_init+0x3c>

080488e0 <strtol@plt>:
 80488e0:	ff 25 5c c0 04 08    	jmp    *0x804c05c
 80488e6:	68 b8 00 00 00       	push   $0xb8
 80488eb:	e9 70 fe ff ff       	jmp    8048760 <_init+0x3c>

080488f0 <connect@plt>:
 80488f0:	ff 25 60 c0 04 08    	jmp    *0x804c060
 80488f6:	68 c0 00 00 00       	push   $0xc0
 80488fb:	e9 60 fe ff ff       	jmp    8048760 <_init+0x3c>

08048900 <close@plt>:
 8048900:	ff 25 64 c0 04 08    	jmp    *0x804c064
 8048906:	68 c8 00 00 00       	push   $0xc8
 804890b:	e9 50 fe ff ff       	jmp    8048760 <_init+0x3c>

08048910 <__ctype_b_loc@plt>:
 8048910:	ff 25 68 c0 04 08    	jmp    *0x804c068
 8048916:	68 d0 00 00 00       	push   $0xd0
 804891b:	e9 40 fe ff ff       	jmp    8048760 <_init+0x3c>

08048920 <__sprintf_chk@plt>:
 8048920:	ff 25 6c c0 04 08    	jmp    *0x804c06c
 8048926:	68 d8 00 00 00       	push   $0xd8
 804892b:	e9 30 fe ff ff       	jmp    8048760 <_init+0x3c>

Disassembly of section .text:

08048930 <_start>:
 8048930:	31 ed                	xor    %ebp,%ebp
 8048932:	5e                   	pop    %esi
 8048933:	89 e1                	mov    %esp,%ecx
 8048935:	83 e4 f0             	and    $0xfffffff0,%esp
 8048938:	50                   	push   %eax
 8048939:	54                   	push   %esp
 804893a:	52                   	push   %edx
 804893b:	68 40 a0 04 08       	push   $0x804a040
 8048940:	68 d0 9f 04 08       	push   $0x8049fd0
 8048945:	51                   	push   %ecx
 8048946:	56                   	push   %esi
 8048947:	68 e4 89 04 08       	push   $0x80489e4
 804894c:	e8 ff fe ff ff       	call   8048850 <__libc_start_main@plt>
 8048951:	f4                   	hlt    
 8048952:	90                   	nop
 8048953:	90                   	nop
 8048954:	90                   	nop
 8048955:	90                   	nop
 8048956:	90                   	nop
 8048957:	90                   	nop
 8048958:	90                   	nop
 8048959:	90                   	nop
 804895a:	90                   	nop
 804895b:	90                   	nop
 804895c:	90                   	nop
 804895d:	90                   	nop
 804895e:	90                   	nop
 804895f:	90                   	nop

08048960 <__do_global_dtors_aux>:
 8048960:	55                   	push   %ebp
 8048961:	89 e5                	mov    %esp,%ebp
 8048963:	53                   	push   %ebx
 8048964:	83 ec 04             	sub    $0x4,%esp
 8048967:	80 3d c4 c3 04 08 00 	cmpb   $0x0,0x804c3c4
 804896e:	75 3f                	jne    80489af <__do_global_dtors_aux+0x4f>
 8048970:	a1 c8 c3 04 08       	mov    0x804c3c8,%eax
 8048975:	bb 20 bf 04 08       	mov    $0x804bf20,%ebx
 804897a:	81 eb 1c bf 04 08    	sub    $0x804bf1c,%ebx
 8048980:	c1 fb 02             	sar    $0x2,%ebx
 8048983:	83 eb 01             	sub    $0x1,%ebx
 8048986:	39 d8                	cmp    %ebx,%eax
 8048988:	73 1e                	jae    80489a8 <__do_global_dtors_aux+0x48>
 804898a:	8d b6 00 00 00 00    	lea    0x0(%esi),%esi
 8048990:	83 c0 01             	add    $0x1,%eax
 8048993:	a3 c8 c3 04 08       	mov    %eax,0x804c3c8
 8048998:	ff 14 85 1c bf 04 08 	call   *0x804bf1c(,%eax,4)
 804899f:	a1 c8 c3 04 08       	mov    0x804c3c8,%eax
 80489a4:	39 d8                	cmp    %ebx,%eax
 80489a6:	72 e8                	jb     8048990 <__do_global_dtors_aux+0x30>
 80489a8:	c6 05 c4 c3 04 08 01 	movb   $0x1,0x804c3c4
 80489af:	83 c4 04             	add    $0x4,%esp
 80489b2:	5b                   	pop    %ebx
 80489b3:	5d                   	pop    %ebp
 80489b4:	c3                   	ret    
 80489b5:	8d 74 26 00          	lea    0x0(%esi,%eiz,1),%esi
 80489b9:	8d bc 27 00 00 00 00 	lea    0x0(%edi,%eiz,1),%edi

080489c0 <frame_dummy>:
 80489c0:	55                   	push   %ebp
 80489c1:	89 e5                	mov    %esp,%ebp
 80489c3:	83 ec 18             	sub    $0x18,%esp
 80489c6:	a1 24 bf 04 08       	mov    0x804bf24,%eax
 80489cb:	85 c0                	test   %eax,%eax
 80489cd:	74 12                	je     80489e1 <frame_dummy+0x21>
 80489cf:	b8 00 00 00 00       	mov    $0x0,%eax
 80489d4:	85 c0                	test   %eax,%eax
 80489d6:	74 09                	je     80489e1 <frame_dummy+0x21>
 80489d8:	c7 04 24 24 bf 04 08 	movl   $0x804bf24,(%esp)
 80489df:	ff d0                	call   *%eax
 80489e1:	c9                   	leave  
 80489e2:	c3                   	ret    
 80489e3:	90                   	nop

080489e4 <main>:
 80489e4:	55                   	push   %ebp
 80489e5:	89 e5                	mov    %esp,%ebp
 80489e7:	53                   	push   %ebx
 80489e8:	83 e4 f0             	and    $0xfffffff0,%esp
 80489eb:	83 ec 10             	sub    $0x10,%esp
 80489ee:	8b 45 08             	mov    0x8(%ebp),%eax
 80489f1:	8b 5d 0c             	mov    0xc(%ebp),%ebx
 80489f4:	83 f8 01             	cmp    $0x1,%eax
 80489f7:	75 0c                	jne    8048a05 <main+0x21>
 80489f9:	a1 a4 c3 04 08       	mov    0x804c3a4,%eax
 80489fe:	a3 d0 c3 04 08       	mov    %eax,0x804c3d0
 8048a03:	eb 74                	jmp    8048a79 <main+0x95>
 8048a05:	83 f8 02             	cmp    $0x2,%eax
 8048a08:	75 49                	jne    8048a53 <main+0x6f>
 8048a0a:	c7 44 24 04 a0 a0 04 	movl   $0x804a0a0,0x4(%esp)
 8048a11:	08 
 8048a12:	8b 43 04             	mov    0x4(%ebx),%eax
 8048a15:	89 04 24             	mov    %eax,(%esp)
 8048a18:	e8 63 fe ff ff       	call   8048880 <fopen@plt>
 8048a1d:	a3 d0 c3 04 08       	mov    %eax,0x804c3d0
 8048a22:	85 c0                	test   %eax,%eax
 8048a24:	75 53                	jne    8048a79 <main+0x95>
 8048a26:	8b 43 04             	mov    0x4(%ebx),%eax
 8048a29:	89 44 24 0c          	mov    %eax,0xc(%esp)
 8048a2d:	8b 03                	mov    (%ebx),%eax
 8048a2f:	89 44 24 08          	mov    %eax,0x8(%esp)
 8048a33:	c7 44 24 04 a2 a0 04 	movl   $0x804a0a2,0x4(%esp)
 8048a3a:	08 
 8048a3b:	c7 04 24 01 00 00 00 	movl   $0x1,(%esp)
 8048a42:	e8 59 fe ff ff       	call   80488a0 <__printf_chk@plt>
 8048a47:	c7 04 24 08 00 00 00 	movl   $0x8,(%esp)
 8048a4e:	e8 ed fd ff ff       	call   8048840 <exit@plt>
 8048a53:	8b 03                	mov    (%ebx),%eax
 8048a55:	89 44 24 08          	mov    %eax,0x8(%esp)
 8048a59:	c7 44 24 04 bf a0 04 	movl   $0x804a0bf,0x4(%esp)
 8048a60:	08 
 8048a61:	c7 04 24 01 00 00 00 	movl   $0x1,(%esp)
 8048a68:	e8 33 fe ff ff       	call   80488a0 <__printf_chk@plt>
 8048a6d:	c7 04 24 08 00 00 00 	movl   $0x8,(%esp)
 8048a74:	e8 c7 fd ff ff       	call   8048840 <exit@plt>
 8048a79:	e8 0d 06 00 00       	call   804908b <initialize_bomb>
 8048a7e:	c7 04 24 24 a1 04 08 	movl   $0x804a124,(%esp)
 8048a85:	e8 76 fd ff ff       	call   8048800 <puts@plt>
 8048a8a:	c7 04 24 60 a1 04 08 	movl   $0x804a160,(%esp)
 8048a91:	e8 6a fd ff ff       	call   8048800 <puts@plt>
 8048a96:	e8 b2 06 00 00       	call   804914d <read_line>
 8048a9b:	89 04 24             	mov    %eax,(%esp)
 8048a9e:	e8 ad 00 00 00       	call   8048b50 <phase_1>
 8048aa3:	e8 03 08 00 00       	call   80492ab <phase_defused>
 8048aa8:	c7 04 24 8c a1 04 08 	movl   $0x804a18c,(%esp)
 8048aaf:	e8 4c fd ff ff       	call   8048800 <puts@plt>
 8048ab4:	e8 94 06 00 00       	call   804914d <read_line>
 8048ab9:	89 04 24             	mov    %eax,(%esp)
 8048abc:	e8 b3 00 00 00       	call   8048b74 <phase_2>
 8048ac1:	e8 e5 07 00 00       	call   80492ab <phase_defused>
 8048ac6:	c7 04 24 d9 a0 04 08 	movl   $0x804a0d9,(%esp)
 8048acd:	e8 2e fd ff ff       	call   8048800 <puts@plt>
 8048ad2:	e8 76 06 00 00       	call   804914d <read_line>
 8048ad7:	89 04 24             	mov    %eax,(%esp)
 8048ada:	e8 e5 00 00 00       	call   8048bc4 <phase_3>
 8048adf:	e8 c7 07 00 00       	call   80492ab <phase_defused>
 8048ae4:	c7 04 24 f7 a0 04 08 	movl   $0x804a0f7,(%esp)
 8048aeb:	e8 10 fd ff ff       	call   8048800 <puts@plt>
 8048af0:	e8 58 06 00 00       	call   804914d <read_line>
 8048af5:	89 04 24             	mov    %eax,(%esp)
 8048af8:	e8 ee 01 00 00       	call   8048ceb <phase_4>
 8048afd:	e8 a9 07 00 00       	call   80492ab <phase_defused>
 8048b02:	c7 04 24 b8 a1 04 08 	movl   $0x804a1b8,(%esp)
 8048b09:	e8 f2 fc ff ff       	call   8048800 <puts@plt>
 8048b0e:	e8 3a 06 00 00       	call   804914d <read_line>
 8048b13:	89 04 24             	mov    %eax,(%esp)
 8048b16:	e8 3f 02 00 00       	call   8048d5a <phase_5>
 8048b1b:	e8 8b 07 00 00       	call   80492ab <phase_defused>
 8048b20:	c7 04 24 06 a1 04 08 	movl   $0x804a106,(%esp)
 8048b27:	e8 d4 fc ff ff       	call   8048800 <puts@plt>
 8048b2c:	e8 1c 06 00 00       	call   804914d <read_line>
 8048b31:	89 04 24             	mov    %eax,(%esp)
 8048b34:	e8 a3 02 00 00       	call   8048ddc <phase_6>
 8048b39:	e8 6d 07 00 00       	call   80492ab <phase_defused>
 8048b3e:	b8 00 00 00 00       	mov    $0x0,%eax
 8048b43:	8b 5d fc             	mov    -0x4(%ebp),%ebx
 8048b46:	c9                   	leave  
 8048b47:	c3                   	ret    
 8048b48:	90                   	nop
 8048b49:	90                   	nop
 8048b4a:	90                   	nop
 8048b4b:	90                   	nop
 8048b4c:	90                   	nop
 8048b4d:	90                   	nop
 8048b4e:	90                   	nop
 8048b4f:	90                   	nop

08048b50 <phase_1>:
 8048b50:	83 ec 1c             	sub    $0x1c,%esp
 8048b53:	c7 44 24 04 dc a1 04 	movl   $0x804a1dc,0x4(%esp)
 8048b5a:	08 
 8048b5b:	8b 44 24 20          	mov    0x20(%esp),%eax
 8048b5f:	89 04 24             	mov    %eax,(%esp)
 8048b62:	e8 ad 04 00 00       	call   8049014 <strings_not_equal>
 8048b67:	85 c0                	test   %eax,%eax
 8048b69:	74 05                	je     8048b70 <phase_1+0x20>
 8048b6b:	e8 b6 05 00 00       	call   8049126 <explode_bomb>
 8048b70:	83 c4 1c             	add    $0x1c,%esp
 8048b73:	c3                   	ret    

08048b74 <phase_2>:
 8048b74:	56                   	push   %esi
 8048b75:	53                   	push   %ebx
 8048b76:	83 ec 34             	sub    $0x34,%esp
 8048b79:	8d 44 24 18          	lea    0x18(%esp),%eax
 8048b7d:	89 44 24 04          	mov    %eax,0x4(%esp)
 8048b81:	8b 44 24 40          	mov    0x40(%esp),%eax
 8048b85:	89 04 24             	mov    %eax,(%esp)
 8048b88:	e8 ce 06 00 00       	call   804925b <read_six_numbers>
 8048b8d:	83 7c 24 18 00       	cmpl   $0x0,0x18(%esp)
 8048b92:	75 07                	jne    8048b9b <phase_2+0x27>
 8048b94:	83 7c 24 1c 01       	cmpl   $0x1,0x1c(%esp)
 8048b99:	74 05                	je     8048ba0 <phase_2+0x2c>
 8048b9b:	e8 86 05 00 00       	call   8049126 <explode_bomb>
 8048ba0:	8d 5c 24 20          	lea    0x20(%esp),%ebx
 8048ba4:	8d 74 24 30          	lea    0x30(%esp),%esi
 8048ba8:	8b 43 f8             	mov    -0x8(%ebx),%eax
 8048bab:	03 43 fc             	add    -0x4(%ebx),%eax
 8048bae:	39 03                	cmp    %eax,(%ebx)
 8048bb0:	74 05                	je     8048bb7 <phase_2+0x43>
 8048bb2:	e8 6f 05 00 00       	call   8049126 <explode_bomb>
 8048bb7:	83 c3 04             	add    $0x4,%ebx
 8048bba:	39 f3                	cmp    %esi,%ebx
 8048bbc:	75 ea                	jne    8048ba8 <phase_2+0x34>
 8048bbe:	83 c4 34             	add    $0x34,%esp
 8048bc1:	5b                   	pop    %ebx
 8048bc2:	5e                   	pop    %esi
 8048bc3:	c3                   	ret    

08048bc4 <phase_3>:
 8048bc4:	83 ec 2c             	sub    $0x2c,%esp
 8048bc7:	8d 44 24 1c          	lea    0x1c(%esp),%eax
 8048bcb:	89 44 24 0c          	mov    %eax,0xc(%esp)
 8048bcf:	8d 44 24 18          	lea    0x18(%esp),%eax
 8048bd3:	89 44 24 08          	mov    %eax,0x8(%esp)
 8048bd7:	c7 44 24 04 cb a3 04 	movl   $0x804a3cb,0x4(%esp)
 8048bde:	08 
 8048bdf:	8b 44 24 30          	mov    0x30(%esp),%eax
 8048be3:	89 04 24             	mov    %eax,(%esp)
 8048be6:	e8 85 fc ff ff       	call   8048870 <__isoc99_sscanf@plt>
 8048beb:	83 f8 01             	cmp    $0x1,%eax
 8048bee:	7f 05                	jg     8048bf5 <phase_3+0x31>
 8048bf0:	e8 31 05 00 00       	call   8049126 <explode_bomb>
 8048bf5:	83 7c 24 18 07       	cmpl   $0x7,0x18(%esp)
 8048bfa:	77 66                	ja     8048c62 <phase_3+0x9e>
 8048bfc:	8b 44 24 18          	mov    0x18(%esp),%eax
 8048c00:	ff 24 85 38 a2 04 08 	jmp    *0x804a238(,%eax,4)
 8048c07:	b8 00 00 00 00       	mov    $0x0,%eax
 8048c0c:	eb 05                	jmp    8048c13 <phase_3+0x4f>
 8048c0e:	b8 49 02 00 00       	mov    $0x249,%eax
 8048c13:	2d bb 02 00 00       	sub    $0x2bb,%eax
 8048c18:	eb 05                	jmp    8048c1f <phase_3+0x5b>
 8048c1a:	b8 00 00 00 00       	mov    $0x0,%eax
 8048c1f:	05 f9 02 00 00       	add    $0x2f9,%eax
 8048c24:	eb 05                	jmp    8048c2b <phase_3+0x67>
 8048c26:	b8 00 00 00 00       	mov    $0x0,%eax
 8048c2b:	2d 31 01 00 00       	sub    $0x131,%eax
 8048c30:	eb 05                	jmp    8048c37 <phase_3+0x73>
 8048c32:	b8 00 00 00 00       	mov    $0x0,%eax
 8048c37:	05 31 01 00 00       	add    $0x131,%eax
 8048c3c:	eb 05                	jmp    8048c43 <phase_3+0x7f>
 8048c3e:	b8 00 00 00 00       	mov    $0x0,%eax
 8048c43:	2d 31 01 00 00       	sub    $0x131,%eax
 8048c48:	eb 05                	jmp    8048c4f <phase_3+0x8b>
 8048c4a:	b8 00 00 00 00       	mov    $0x0,%eax
 8048c4f:	05 31 01 00 00       	add    $0x131,%eax
 8048c54:	eb 05                	jmp    8048c5b <phase_3+0x97>
 8048c56:	b8 00 00 00 00       	mov    $0x0,%eax
 8048c5b:	2d 31 01 00 00       	sub    $0x131,%eax
 8048c60:	eb 0a                	jmp    8048c6c <phase_3+0xa8>
 8048c62:	e8 bf 04 00 00       	call   8049126 <explode_bomb>
 8048c67:	b8 00 00 00 00       	mov    $0x0,%eax
 8048c6c:	83 7c 24 18 05       	cmpl   $0x5,0x18(%esp)
 8048c71:	7f 06                	jg     8048c79 <phase_3+0xb5>
 8048c73:	3b 44 24 1c          	cmp    0x1c(%esp),%eax
 8048c77:	74 05                	je     8048c7e <phase_3+0xba>
 8048c79:	e8 a8 04 00 00       	call   8049126 <explode_bomb>
 8048c7e:	83 c4 2c             	add    $0x2c,%esp
 8048c81:	c3                   	ret    

08048c82 <func4>:
 8048c82:	83 ec 1c             	sub    $0x1c,%esp
 8048c85:	89 5c 24 14          	mov    %ebx,0x14(%esp)
 8048c89:	89 74 24 18          	mov    %esi,0x18(%esp)
 8048c8d:	8b 44 24 20          	mov    0x20(%esp),%eax //c
 8048c91:	8b 54 24 24          	mov    0x24(%esp),%edx //b
 8048c95:	8b 74 24 28          	mov    0x28(%esp),%esi //a
 8048c99:	89 f1                	mov    %esi,%ecx
 8048c9b:	29 d1                	sub    %edx,%ecx //ecx=a-b
 8048c9d:	89 cb                	mov    %ecx,%ebx //ebx=a-b
 8048c9f:	c1 eb 1f             	shr    $0x1f,%ebx 
 8048ca2:	01 d9                	add    %ebx,%ecx
 8048ca4:	d1 f9                	sar    %ecx
 8048ca6:	8d 1c 11             	lea    (%ecx,%edx,1),%ebx
 8048ca9:	39 c3                	cmp    %eax,%ebx
 8048cab:	7e 17                	jle    8048cc4 <func4+0x42> 
 8048cad:	8d 4b ff             	lea    -0x1(%ebx),%ecx
 8048cb0:	89 4c 24 08          	mov    %ecx,0x8(%esp)
 8048cb4:	89 54 24 04          	mov    %edx,0x4(%esp)
 8048cb8:	89 04 24             	mov    %eax,(%esp)
 8048cbb:	e8 c2 ff ff ff       	call   8048c82 <func4>
 8048cc0:	01 c3                	add    %eax,%ebx
 8048cc2:	eb 19                	jmp    8048cdd <func4+0x5b>
 8048cc4:	39 c3                	cmp    %eax,%ebx
 8048cc6:	7d 15                	jge    8048cdd <func4+0x5b>
 8048cc8:	89 74 24 08          	mov    %esi,0x8(%esp)
 8048ccc:	8d 53 01             	lea    0x1(%ebx),%edx
 8048ccf:	89 54 24 04          	mov    %edx,0x4(%esp)
 8048cd3:	89 04 24             	mov    %eax,(%esp)
 8048cd6:	e8 a7 ff ff ff       	call   8048c82 <func4>
 8048cdb:	01 c3                	add    %eax,%ebx
 8048cdd:	89 d8                	mov    %ebx,%eax
 8048cdf:	8b 5c 24 14          	mov    0x14(%esp),%ebx
 8048ce3:	8b 74 24 18          	mov    0x18(%esp),%esi
 8048ce7:	83 c4 1c             	add    $0x1c,%esp
 8048cea:	c3                   	ret    

08048ceb <phase_4>:
 8048ceb:	83 ec 2c             	sub    $0x2c,%esp
 8048cee:	8d 44 24 1c          	lea    0x1c(%esp),%eax
 8048cf2:	89 44 24 0c          	mov    %eax,0xc(%esp)
 8048cf6:	8d 44 24 18          	lea    0x18(%esp),%eax
 8048cfa:	89 44 24 08          	mov    %eax,0x8(%esp)
 8048cfe:	c7 44 24 04 cb a3 04 	movl   $0x804a3cb,0x4(%esp)
 8048d05:	08 
 8048d06:	8b 44 24 30          	mov    0x30(%esp),%eax
 8048d0a:	89 04 24             	mov    %eax,(%esp)
 8048d0d:	e8 5e fb ff ff       	call   8048870 <__isoc99_sscanf@plt>
 8048d12:	83 f8 02             	cmp    $0x2,%eax
 8048d15:	75 0d                	jne    8048d24 <phase_4+0x39>
 8048d17:	8b 44 24 18          	mov    0x18(%esp),%eax
 8048d1b:	85 c0                	test   %eax,%eax
 8048d1d:	78 05                	js     8048d24 <phase_4+0x39>
 8048d1f:	83 f8 0e             	cmp    $0xe,%eax
 8048d22:	7e 05                	jle    8048d29 <phase_4+0x3e>
 8048d24:	e8 fd 03 00 00       	call   8049126 <explode_bomb>
 8048d29:	c7 44 24 08 0e 00 00 	movl   $0xe,0x8(%esp)
 8048d30:	00 
 8048d31:	c7 44 24 04 00 00 00 	movl   $0x0,0x4(%esp)
 8048d38:	00 
 8048d39:	8b 44 24 18          	mov    0x18(%esp),%eax
 8048d3d:	89 04 24             	mov    %eax,(%esp)
 8048d40:	e8 3d ff ff ff       	call   8048c82 <func4>
 8048d45:	83 f8 0a             	cmp    $0xa,%eax
 8048d48:	75 07                	jne    8048d51 <phase_4+0x66>
 8048d4a:	83 7c 24 1c 0a       	cmpl   $0xa,0x1c(%esp)
 8048d4f:	74 05                	je     8048d56 <phase_4+0x6b>
 8048d51:	e8 d0 03 00 00       	call   8049126 <explode_bomb>
 8048d56:	83 c4 2c             	add    $0x2c,%esp
 8048d59:	c3                   	ret    

08048d5a <phase_5>:
 8048d5a:	53                   	push   %ebx
 8048d5b:	83 ec 28             	sub    $0x28,%esp
 8048d5e:	8b 5c 24 30          	mov    0x30(%esp),%ebx
 8048d62:	65 a1 14 00 00 00    	mov    %gs:0x14,%eax
 8048d68:	89 44 24 1c          	mov    %eax,0x1c(%esp)
 8048d6c:	31 c0                	xor    %eax,%eax //清零
 8048d6e:	89 1c 24             	mov    %ebx,(%esp)
 8048d71:	e8 85 02 00 00       	call   8048ffb <string_length>
 8048d76:	83 f8 06             	cmp    $0x6,%eax
 8048d79:	74 05                	je     8048d80 <phase_5+0x26>
 8048d7b:	e8 a6 03 00 00       	call   8049126 <explode_bomb>
 8048d80:	b8 00 00 00 00       	mov    $0x0,%eax
 8048d85:	0f be 14 03          	movsbl (%ebx,%eax,1),%edx //edx=ebx+n*eax
 8048d89:	83 e2 0f             	and    $0xf,%edx
 8048d8c:	0f b6 92 58 a2 04 08 	movzbl 0x804a258(%edx),%edx
 8048d93:	88 54 04 15          	mov    %dl,0x15(%esp,%eax,1)
 8048d97:	83 c0 01             	add    $0x1,%eax
 8048d9a:	83 f8 06             	cmp    $0x6,%eax
 8048d9d:	75 e6                	jne    8048d85 <phase_5+0x2b>
 8048d9f:	c6 44 24 1b 00       	movb   $0x0,0x1b(%esp)
 8048da4:	c7 44 24 04 2e a2 04 	movl   $0x804a22e,0x4(%esp)
 8048dab:	08 
 8048dac:	8d 44 24 15          	lea    0x15(%esp),%eax
 8048db0:	89 04 24             	mov    %eax,(%esp)
 8048db3:	e8 5c 02 00 00       	call   8049014 <strings_not_equal>
 8048db8:	85 c0                	test   %eax,%eax
 8048dba:	74 05                	je     8048dc1 <phase_5+0x67>
 8048dbc:	e8 65 03 00 00       	call   8049126 <explode_bomb>
 8048dc1:	8b 44 24 1c          	mov    0x1c(%esp),%eax
 8048dc5:	65 33 05 14 00 00 00 	xor    %gs:0x14,%eax
 8048dcc:	8d 74 26 00          	lea    0x0(%esi,%eiz,1),%esi
 8048dd0:	74 05                	je     8048dd7 <phase_5+0x7d>
 8048dd2:	e8 f9 f9 ff ff       	call   80487d0 <__stack_chk_fail@plt>
 8048dd7:	83 c4 28             	add    $0x28,%esp
 8048dda:	5b                   	pop    %ebx
 8048ddb:	c3                   	ret    

08048ddc <phase_6>:
 8048ddc:	56                   	push   %esi
 8048ddd:	53                   	push   %ebx
 8048dde:	83 ec 44             	sub    $0x44,%esp
 8048de1:	8d 44 24 10          	lea    0x10(%esp),%eax
 8048de5:	89 44 24 04          	mov    %eax,0x4(%esp)
 8048de9:	8b 44 24 50          	mov    0x50(%esp),%eax
 8048ded:	89 04 24             	mov    %eax,(%esp)
 8048df0:	e8 66 04 00 00       	call   804925b <read_six_numbers>
 8048df5:	be 00 00 00 00       	mov    $0x0,%esi
 8048dfa:	8b 44 b4 10          	mov    0x10(%esp,%esi,4),%eax
 8048dfe:	83 e8 01             	sub    $0x1,%eax
 8048e01:	83 f8 05             	cmp    $0x5,%eax
 8048e04:	76 05                	jbe    8048e0b <phase_6+0x2f>
 8048e06:	e8 1b 03 00 00       	call   8049126 <explode_bomb>
 8048e0b:	83 c6 01             	add    $0x1,%esi
 8048e0e:	83 fe 06             	cmp    $0x6,%esi
 8048e11:	74 33                	je     8048e46 <phase_6+0x6a>
 8048e13:	89 f3                	mov    %esi,%ebx
 8048e15:	8b 44 9c 10          	mov    0x10(%esp,%ebx,4),%eax
 8048e19:	39 44 b4 0c          	cmp    %eax,0xc(%esp,%esi,4)
 8048e1d:	75 05                	jne    8048e24 <phase_6+0x48>
 8048e1f:	e8 02 03 00 00       	call   8049126 <explode_bomb>
 8048e24:	83 c3 01             	add    $0x1,%ebx
 8048e27:	83 fb 05             	cmp    $0x5,%ebx
 8048e2a:	7e e9                	jle    8048e15 <phase_6+0x39>
 8048e2c:	eb cc                	jmp    8048dfa <phase_6+0x1e>
 8048e2e:	8b 52 08             	mov    0x8(%edx),%edx
 8048e31:	83 c0 01             	add    $0x1,%eax
 8048e34:	39 c8                	cmp    %ecx,%eax
 8048e36:	75 f6                	jne    8048e2e <phase_6+0x52>
 8048e38:	89 54 b4 28          	mov    %edx,0x28(%esp,%esi,4)
 8048e3c:	83 c3 01             	add    $0x1,%ebx
 8048e3f:	83 fb 06             	cmp    $0x6,%ebx
 8048e42:	75 07                	jne    8048e4b <phase_6+0x6f>
 8048e44:	eb 1c                	jmp    8048e62 <phase_6+0x86>
 8048e46:	bb 00 00 00 00       	mov    $0x0,%ebx
 8048e4b:	89 de                	mov    %ebx,%esi
 8048e4d:	8b 4c 9c 10          	mov    0x10(%esp,%ebx,4),%ecx
 8048e51:	b8 01 00 00 00       	mov    $0x1,%eax
 8048e56:	ba 3c c1 04 08       	mov    $0x804c13c,%edx
 8048e5b:	83 f9 01             	cmp    $0x1,%ecx
 8048e5e:	7f ce                	jg     8048e2e <phase_6+0x52>
 8048e60:	eb d6                	jmp    8048e38 <phase_6+0x5c>
 8048e62:	8b 5c 24 28          	mov    0x28(%esp),%ebx
 8048e66:	8b 44 24 2c          	mov    0x2c(%esp),%eax
 8048e6a:	89 43 08             	mov    %eax,0x8(%ebx)
 8048e6d:	8b 54 24 30          	mov    0x30(%esp),%edx
 8048e71:	89 50 08             	mov    %edx,0x8(%eax)
 8048e74:	8b 44 24 34          	mov    0x34(%esp),%eax
 8048e78:	89 42 08             	mov    %eax,0x8(%edx)
 8048e7b:	8b 54 24 38          	mov    0x38(%esp),%edx
 8048e7f:	89 50 08             	mov    %edx,0x8(%eax)
 8048e82:	8b 44 24 3c          	mov    0x3c(%esp),%eax
 8048e86:	89 42 08             	mov    %eax,0x8(%edx)
 8048e89:	c7 40 08 00 00 00 00 	movl   $0x0,0x8(%eax)
 8048e90:	be 05 00 00 00       	mov    $0x5,%esi
 8048e95:	8b 43 08             	mov    0x8(%ebx),%eax
 8048e98:	8b 10                	mov    (%eax),%edx
 8048e9a:	39 13                	cmp    %edx,(%ebx)
 8048e9c:	7d 05                	jge    8048ea3 <phase_6+0xc7>
 8048e9e:	e8 83 02 00 00       	call   8049126 <explode_bomb>
 8048ea3:	8b 5b 08             	mov    0x8(%ebx),%ebx
 8048ea6:	83 ee 01             	sub    $0x1,%esi
 8048ea9:	75 ea                	jne    8048e95 <phase_6+0xb9>
 8048eab:	83 c4 44             	add    $0x44,%esp
 8048eae:	5b                   	pop    %ebx
 8048eaf:	5e                   	pop    %esi
 8048eb0:	c3                   	ret    

08048eb1 <fun7>:
 8048eb1:	53                   	push   %ebx
 8048eb2:	83 ec 18             	sub    $0x18,%esp
 8048eb5:	8b 54 24 20          	mov    0x20(%esp),%edx
 8048eb9:	8b 4c 24 24          	mov    0x24(%esp),%ecx
 8048ebd:	85 d2                	test   %edx,%edx
 8048ebf:	74 37                	je     8048ef8 <fun7+0x47>
 8048ec1:	8b 1a                	mov    (%edx),%ebx
 8048ec3:	39 cb                	cmp    %ecx,%ebx
 8048ec5:	7e 13                	jle    8048eda <fun7+0x29>
 8048ec7:	89 4c 24 04          	mov    %ecx,0x4(%esp)
 8048ecb:	8b 42 04             	mov    0x4(%edx),%eax
 8048ece:	89 04 24             	mov    %eax,(%esp)
 8048ed1:	e8 db ff ff ff       	call   8048eb1 <fun7>
 8048ed6:	01 c0                	add    %eax,%eax
 8048ed8:	eb 23                	jmp    8048efd <fun7+0x4c>
 8048eda:	b8 00 00 00 00       	mov    $0x0,%eax
 8048edf:	39 cb                	cmp    %ecx,%ebx
 8048ee1:	74 1a                	je     8048efd <fun7+0x4c>
 8048ee3:	89 4c 24 04          	mov    %ecx,0x4(%esp)
 8048ee7:	8b 42 08             	mov    0x8(%edx),%eax
 8048eea:	89 04 24             	mov    %eax,(%esp)
 8048eed:	e8 bf ff ff ff       	call   8048eb1 <fun7>
 8048ef2:	8d 44 00 01          	lea    0x1(%eax,%eax,1),%eax
 8048ef6:	eb 05                	jmp    8048efd <fun7+0x4c>
 8048ef8:	b8 ff ff ff ff       	mov    $0xffffffff,%eax
 8048efd:	83 c4 18             	add    $0x18,%esp
 8048f00:	5b                   	pop    %ebx
 8048f01:	c3                   	ret    

08048f02 <secret_phase>:
 8048f02:	53                   	push   %ebx
 8048f03:	83 ec 18             	sub    $0x18,%esp
 8048f06:	e8 42 02 00 00       	call   804914d <read_line>
 8048f0b:	c7 44 24 08 0a 00 00 	movl   $0xa,0x8(%esp)
 8048f12:	00 
 8048f13:	c7 44 24 04 00 00 00 	movl   $0x0,0x4(%esp)
 8048f1a:	00 
 8048f1b:	89 04 24             	mov    %eax,(%esp)
 8048f1e:	e8 bd f9 ff ff       	call   80488e0 <strtol@plt>
 8048f23:	89 c3                	mov    %eax,%ebx
 8048f25:	8d 40 ff             	lea    -0x1(%eax),%eax
 8048f28:	3d e8 03 00 00       	cmp    $0x3e8,%eax
 8048f2d:	76 05                	jbe    8048f34 <secret_phase+0x32>
 8048f2f:	e8 f2 01 00 00       	call   8049126 <explode_bomb>
 8048f34:	89 5c 24 04          	mov    %ebx,0x4(%esp) 
 8048f38:	c7 04 24 88 c0 04 08 	movl   $0x804c088,(%esp) //36
 8048f3f:	e8 6d ff ff ff       	call   8048eb1 <fun7>
 8048f44:	83 f8 04             	cmp    $0x4,%eax
 8048f47:	74 05                	je     8048f4e <secret_phase+0x4c>
 8048f49:	e8 d8 01 00 00       	call   8049126 <explode_bomb>
 8048f4e:	c7 04 24 08 a2 04 08 	movl   $0x804a208,(%esp) //win
 8048f55:	e8 a6 f8 ff ff       	call   8048800 <puts@plt>
 8048f5a:	e8 4c 03 00 00       	call   80492ab <phase_defused>
 8048f5f:	83 c4 18             	add    $0x18,%esp
 8048f62:	5b                   	pop    %ebx
 8048f63:	c3                   	ret    
 8048f64:	90                   	nop
 8048f65:	90                   	nop
 8048f66:	90                   	nop
 8048f67:	90                   	nop
 8048f68:	90                   	nop
 8048f69:	90                   	nop
 8048f6a:	90                   	nop
 8048f6b:	90                   	nop
 8048f6c:	90                   	nop
 8048f6d:	90                   	nop
 8048f6e:	90                   	nop
 8048f6f:	90                   	nop

08048f70 <sig_handler>:
 8048f70:	83 ec 1c             	sub    $0x1c,%esp
 8048f73:	c7 04 24 68 a2 04 08 	movl   $0x804a268,(%esp)
 8048f7a:	e8 81 f8 ff ff       	call   8048800 <puts@plt>
 8048f7f:	c7 04 24 03 00 00 00 	movl   $0x3,(%esp)
 8048f86:	e8 25 f8 ff ff       	call   80487b0 <sleep@plt>
 8048f8b:	c7 44 24 04 2a a3 04 	movl   $0x804a32a,0x4(%esp)
 8048f92:	08 
 8048f93:	c7 04 24 01 00 00 00 	movl   $0x1,(%esp)
 8048f9a:	e8 01 f9 ff ff       	call   80488a0 <__printf_chk@plt>
 8048f9f:	a1 c0 c3 04 08       	mov    0x804c3c0,%eax
 8048fa4:	89 04 24             	mov    %eax,(%esp)
 8048fa7:	e8 d4 f7 ff ff       	call   8048780 <fflush@plt>
 8048fac:	c7 04 24 01 00 00 00 	movl   $0x1,(%esp)
 8048fb3:	e8 f8 f7 ff ff       	call   80487b0 <sleep@plt>
 8048fb8:	c7 04 24 32 a3 04 08 	movl   $0x804a332,(%esp)
 8048fbf:	e8 3c f8 ff ff       	call   8048800 <puts@plt>
 8048fc4:	c7 04 24 10 00 00 00 	movl   $0x10,(%esp)
 8048fcb:	e8 70 f8 ff ff       	call   8048840 <exit@plt>

08048fd0 <invalid_phase>:
 8048fd0:	83 ec 1c             	sub    $0x1c,%esp
 8048fd3:	8b 44 24 20          	mov    0x20(%esp),%eax
 8048fd7:	89 44 24 08          	mov    %eax,0x8(%esp)
 8048fdb:	c7 44 24 04 3a a3 04 	movl   $0x804a33a,0x4(%esp)
 8048fe2:	08 
 8048fe3:	c7 04 24 01 00 00 00 	movl   $0x1,(%esp)
 8048fea:	e8 b1 f8 ff ff       	call   80488a0 <__printf_chk@plt>
 8048fef:	c7 04 24 08 00 00 00 	movl   $0x8,(%esp)
 8048ff6:	e8 45 f8 ff ff       	call   8048840 <exit@plt>

08048ffb <string_length>:
 8048ffb:	8b 54 24 04          	mov    0x4(%esp),%edx
 8048fff:	b8 00 00 00 00       	mov    $0x0,%eax
 8049004:	80 3a 00             	cmpb   $0x0,(%edx)
 8049007:	74 09                	je     8049012 <string_length+0x17>
 8049009:	83 c0 01             	add    $0x1,%eax
 804900c:	80 3c 02 00          	cmpb   $0x0,(%edx,%eax,1)
 8049010:	75 f7                	jne    8049009 <string_length+0xe>
 8049012:	f3 c3                	repz ret 

08049014 <strings_not_equal>:
 8049014:	83 ec 10             	sub    $0x10,%esp
 8049017:	89 5c 24 04          	mov    %ebx,0x4(%esp)
 804901b:	89 74 24 08          	mov    %esi,0x8(%esp)
 804901f:	89 7c 24 0c          	mov    %edi,0xc(%esp)
 8049023:	8b 5c 24 14          	mov    0x14(%esp),%ebx
 8049027:	8b 74 24 18          	mov    0x18(%esp),%esi
 804902b:	89 1c 24             	mov    %ebx,(%esp)
 804902e:	e8 c8 ff ff ff       	call   8048ffb <string_length>
 8049033:	89 c7                	mov    %eax,%edi
 8049035:	89 34 24             	mov    %esi,(%esp)
 8049038:	e8 be ff ff ff       	call   8048ffb <string_length>
 804903d:	ba 01 00 00 00       	mov    $0x1,%edx
 8049042:	39 c7                	cmp    %eax,%edi
 8049044:	75 33                	jne    8049079 <strings_not_equal+0x65>
 8049046:	0f b6 03             	movzbl (%ebx),%eax
 8049049:	b2 00                	mov    $0x0,%dl
 804904b:	84 c0                	test   %al,%al
 804904d:	74 2a                	je     8049079 <strings_not_equal+0x65>
 804904f:	b2 01                	mov    $0x1,%dl
 8049051:	3a 06                	cmp    (%esi),%al
 8049053:	75 24                	jne    8049079 <strings_not_equal+0x65>
 8049055:	b8 00 00 00 00       	mov    $0x0,%eax
 804905a:	eb 08                	jmp    8049064 <strings_not_equal+0x50>
 804905c:	83 c0 01             	add    $0x1,%eax
 804905f:	3a 14 06             	cmp    (%esi,%eax,1),%dl
 8049062:	75 10                	jne    8049074 <strings_not_equal+0x60>
 8049064:	0f b6 54 03 01       	movzbl 0x1(%ebx,%eax,1),%edx
 8049069:	84 d2                	test   %dl,%dl
 804906b:	75 ef                	jne    804905c <strings_not_equal+0x48>
 804906d:	ba 00 00 00 00       	mov    $0x0,%edx
 8049072:	eb 05                	jmp    8049079 <strings_not_equal+0x65>
 8049074:	ba 01 00 00 00       	mov    $0x1,%edx
 8049079:	89 d0                	mov    %edx,%eax
 804907b:	8b 5c 24 04          	mov    0x4(%esp),%ebx
 804907f:	8b 74 24 08          	mov    0x8(%esp),%esi
 8049083:	8b 7c 24 0c          	mov    0xc(%esp),%edi
 8049087:	83 c4 10             	add    $0x10,%esp
 804908a:	c3                   	ret    

0804908b <initialize_bomb>:
 804908b:	83 ec 1c             	sub    $0x1c,%esp
 804908e:	c7 44 24 04 70 8f 04 	movl   $0x8048f70,0x4(%esp)
 8049095:	08 
 8049096:	c7 04 24 02 00 00 00 	movl   $0x2,(%esp)
 804909d:	e8 fe f6 ff ff       	call   80487a0 <signal@plt>
 80490a2:	83 c4 1c             	add    $0x1c,%esp
 80490a5:	c3                   	ret    

080490a6 <initialize_bomb_solve>:
 80490a6:	f3 c3                	repz ret 

080490a8 <blank_line>:
 80490a8:	56                   	push   %esi
 80490a9:	53                   	push   %ebx
 80490aa:	83 ec 04             	sub    $0x4,%esp
 80490ad:	8b 74 24 10          	mov    0x10(%esp),%esi
 80490b1:	eb 14                	jmp    80490c7 <blank_line+0x1f>
 80490b3:	e8 58 f8 ff ff       	call   8048910 <__ctype_b_loc@plt>
 80490b8:	83 c6 01             	add    $0x1,%esi
 80490bb:	0f be db             	movsbl %bl,%ebx
 80490be:	8b 00                	mov    (%eax),%eax
 80490c0:	f6 44 58 01 20       	testb  $0x20,0x1(%eax,%ebx,2)
 80490c5:	74 0e                	je     80490d5 <blank_line+0x2d>
 80490c7:	0f b6 1e             	movzbl (%esi),%ebx
 80490ca:	84 db                	test   %bl,%bl
 80490cc:	75 e5                	jne    80490b3 <blank_line+0xb>
 80490ce:	b8 01 00 00 00       	mov    $0x1,%eax
 80490d3:	eb 05                	jmp    80490da <blank_line+0x32>
 80490d5:	b8 00 00 00 00       	mov    $0x0,%eax
 80490da:	83 c4 04             	add    $0x4,%esp
 80490dd:	5b                   	pop    %ebx
 80490de:	5e                   	pop    %esi
 80490df:	c3                   	ret    

080490e0 <skip>:
 80490e0:	53                   	push   %ebx
 80490e1:	83 ec 18             	sub    $0x18,%esp
 80490e4:	a1 d0 c3 04 08       	mov    0x804c3d0,%eax
 80490e9:	89 44 24 08          	mov    %eax,0x8(%esp)
 80490ed:	c7 44 24 04 50 00 00 	movl   $0x50,0x4(%esp)
 80490f4:	00 
 80490f5:	a1 cc c3 04 08       	mov    0x804c3cc,%eax
 80490fa:	8d 04 80             	lea    (%eax,%eax,4),%eax
 80490fd:	c1 e0 04             	shl    $0x4,%eax
 8049100:	05 e0 c3 04 08       	add    $0x804c3e0,%eax
 8049105:	89 04 24             	mov    %eax,(%esp)
 8049108:	e8 83 f6 ff ff       	call   8048790 <fgets@plt>
 804910d:	89 c3                	mov    %eax,%ebx
 804910f:	85 c0                	test   %eax,%eax
 8049111:	74 0c                	je     804911f <skip+0x3f>
 8049113:	89 04 24             	mov    %eax,(%esp)
 8049116:	e8 8d ff ff ff       	call   80490a8 <blank_line>
 804911b:	85 c0                	test   %eax,%eax
 804911d:	75 c5                	jne    80490e4 <skip+0x4>
 804911f:	89 d8                	mov    %ebx,%eax
 8049121:	83 c4 18             	add    $0x18,%esp
 8049124:	5b                   	pop    %ebx
 8049125:	c3                   	ret    

08049126 <explode_bomb>:
 8049126:	83 ec 1c             	sub    $0x1c,%esp
 8049129:	c7 04 24 4b a3 04 08 	movl   $0x804a34b,(%esp)
 8049130:	e8 cb f6 ff ff       	call   8048800 <puts@plt>
 8049135:	c7 04 24 54 a3 04 08 	movl   $0x804a354,(%esp)
 804913c:	e8 bf f6 ff ff       	call   8048800 <puts@plt>
 8049141:	c7 04 24 08 00 00 00 	movl   $0x8,(%esp)
 8049148:	e8 f3 f6 ff ff       	call   8048840 <exit@plt>

0804914d <read_line>:
 804914d:	83 ec 2c             	sub    $0x2c,%esp
 8049150:	89 5c 24 20          	mov    %ebx,0x20(%esp)
 8049154:	89 74 24 24          	mov    %esi,0x24(%esp)
 8049158:	89 7c 24 28          	mov    %edi,0x28(%esp)
 804915c:	e8 7f ff ff ff       	call   80490e0 <skip>
 8049161:	85 c0                	test   %eax,%eax
 8049163:	75 6c                	jne    80491d1 <read_line+0x84>
 8049165:	a1 a4 c3 04 08       	mov    0x804c3a4,%eax
 804916a:	39 05 d0 c3 04 08    	cmp    %eax,0x804c3d0
 8049170:	75 18                	jne    804918a <read_line+0x3d>
 8049172:	c7 04 24 6b a3 04 08 	movl   $0x804a36b,(%esp)
 8049179:	e8 82 f6 ff ff       	call   8048800 <puts@plt>
 804917e:	c7 04 24 08 00 00 00 	movl   $0x8,(%esp)
 8049185:	e8 b6 f6 ff ff       	call   8048840 <exit@plt>
 804918a:	c7 04 24 89 a3 04 08 	movl   $0x804a389,(%esp)
 8049191:	e8 5a f6 ff ff       	call   80487f0 <getenv@plt>
 8049196:	85 c0                	test   %eax,%eax
 8049198:	74 0c                	je     80491a6 <read_line+0x59>
 804919a:	c7 04 24 00 00 00 00 	movl   $0x0,(%esp)
 80491a1:	e8 9a f6 ff ff       	call   8048840 <exit@plt>
 80491a6:	a1 a4 c3 04 08       	mov    0x804c3a4,%eax
 80491ab:	a3 d0 c3 04 08       	mov    %eax,0x804c3d0
 80491b0:	e8 2b ff ff ff       	call   80490e0 <skip>
 80491b5:	85 c0                	test   %eax,%eax
 80491b7:	75 18                	jne    80491d1 <read_line+0x84>
 80491b9:	c7 04 24 6b a3 04 08 	movl   $0x804a36b,(%esp)
 80491c0:	e8 3b f6 ff ff       	call   8048800 <puts@plt>
 80491c5:	c7 04 24 00 00 00 00 	movl   $0x0,(%esp)
 80491cc:	e8 6f f6 ff ff       	call   8048840 <exit@plt>
 80491d1:	8b 15 cc c3 04 08    	mov    0x804c3cc,%edx
 80491d7:	8d 1c 92             	lea    (%edx,%edx,4),%ebx
 80491da:	c1 e3 04             	shl    $0x4,%ebx
 80491dd:	81 c3 e0 c3 04 08    	add    $0x804c3e0,%ebx
 80491e3:	89 df                	mov    %ebx,%edi
 80491e5:	b8 00 00 00 00       	mov    $0x0,%eax
 80491ea:	b9 ff ff ff ff       	mov    $0xffffffff,%ecx
 80491ef:	f2 ae                	repnz scas %es:(%edi),%al
 80491f1:	f7 d1                	not    %ecx
 80491f3:	83 e9 01             	sub    $0x1,%ecx
 80491f6:	83 f9 4e             	cmp    $0x4e,%ecx
 80491f9:	7e 37                	jle    8049232 <read_line+0xe5>
 80491fb:	c7 04 24 94 a3 04 08 	movl   $0x804a394,(%esp)
 8049202:	e8 f9 f5 ff ff       	call   8048800 <puts@plt>
 8049207:	a1 cc c3 04 08       	mov    0x804c3cc,%eax
 804920c:	8d 50 01             	lea    0x1(%eax),%edx
 804920f:	89 15 cc c3 04 08    	mov    %edx,0x804c3cc
 8049215:	6b c0 50             	imul   $0x50,%eax,%eax
 8049218:	05 e0 c3 04 08       	add    $0x804c3e0,%eax
 804921d:	ba af a3 04 08       	mov    $0x804a3af,%edx
 8049222:	b9 04 00 00 00       	mov    $0x4,%ecx
 8049227:	89 c7                	mov    %eax,%edi
 8049229:	89 d6                	mov    %edx,%esi
 804922b:	f3 a5                	rep movsl %ds:(%esi),%es:(%edi)
 804922d:	e8 f4 fe ff ff       	call   8049126 <explode_bomb>
 8049232:	8d 04 92             	lea    (%edx,%edx,4),%eax
 8049235:	c1 e0 04             	shl    $0x4,%eax
 8049238:	c6 84 01 df c3 04 08 	movb   $0x0,0x804c3df(%ecx,%eax,1)
 804923f:	00 
 8049240:	83 c2 01             	add    $0x1,%edx
 8049243:	89 15 cc c3 04 08    	mov    %edx,0x804c3cc
 8049249:	89 d8                	mov    %ebx,%eax
 804924b:	8b 5c 24 20          	mov    0x20(%esp),%ebx
 804924f:	8b 74 24 24          	mov    0x24(%esp),%esi
 8049253:	8b 7c 24 28          	mov    0x28(%esp),%edi
 8049257:	83 c4 2c             	add    $0x2c,%esp
 804925a:	c3                   	ret    

0804925b <read_six_numbers>:
 804925b:	83 ec 2c             	sub    $0x2c,%esp
 804925e:	8b 44 24 34          	mov    0x34(%esp),%eax
 8049262:	8d 50 14             	lea    0x14(%eax),%edx
 8049265:	89 54 24 1c          	mov    %edx,0x1c(%esp)
 8049269:	8d 50 10             	lea    0x10(%eax),%edx
 804926c:	89 54 24 18          	mov    %edx,0x18(%esp)
 8049270:	8d 50 0c             	lea    0xc(%eax),%edx
 8049273:	89 54 24 14          	mov    %edx,0x14(%esp)
 8049277:	8d 50 08             	lea    0x8(%eax),%edx
 804927a:	89 54 24 10          	mov    %edx,0x10(%esp)
 804927e:	8d 50 04             	lea    0x4(%eax),%edx
 8049281:	89 54 24 0c          	mov    %edx,0xc(%esp)
 8049285:	89 44 24 08          	mov    %eax,0x8(%esp)
 8049289:	c7 44 24 04 bf a3 04 	movl   $0x804a3bf,0x4(%esp)
 8049290:	08 
 8049291:	8b 44 24 30          	mov    0x30(%esp),%eax
 8049295:	89 04 24             	mov    %eax,(%esp)
 8049298:	e8 d3 f5 ff ff       	call   8048870 <__isoc99_sscanf@plt>
 804929d:	83 f8 05             	cmp    $0x5,%eax
 80492a0:	7f 05                	jg     80492a7 <read_six_numbers+0x4c>
 80492a2:	e8 7f fe ff ff       	call   8049126 <explode_bomb>
 80492a7:	83 c4 2c             	add    $0x2c,%esp
 80492aa:	c3                   	ret    

080492ab <phase_defused>:
 80492ab:	81 ec 8c 00 00 00    	sub    $0x8c,%esp
 80492b1:	65 a1 14 00 00 00    	mov    %gs:0x14,%eax
 80492b7:	89 44 24 7c          	mov    %eax,0x7c(%esp)
 80492bb:	31 c0                	xor    %eax,%eax
 80492bd:	83 3d cc c3 04 08 06 	cmpl   $0x6,0x804c3cc
 80492c4:	75 72                	jne    8049338 <phase_defused+0x8d>
 80492c6:	8d 44 24 2c          	lea    0x2c(%esp),%eax
 80492ca:	89 44 24 10          	mov    %eax,0x10(%esp)
 80492ce:	8d 44 24 28          	lea    0x28(%esp),%eax
 80492d2:	89 44 24 0c          	mov    %eax,0xc(%esp)
 80492d6:	8d 44 24 24          	lea    0x24(%esp),%eax
 80492da:	89 44 24 08          	mov    %eax,0x8(%esp)
 80492de:	c7 44 24 04 d1 a3 04 	movl   $0x804a3d1,0x4(%esp)
 80492e5:	08 
 80492e6:	c7 04 24 d0 c4 04 08 	movl   $0x804c4d0,(%esp)
 80492ed:	e8 7e f5 ff ff       	call   8048870 <__isoc99_sscanf@plt>
 80492f2:	83 f8 03             	cmp    $0x3,%eax
 80492f5:	75 35                	jne    804932c <phase_defused+0x81>
 80492f7:	c7 44 24 04 da a3 04 	movl   $0x804a3da,0x4(%esp)
 80492fe:	08 
 80492ff:	8d 44 24 2c          	lea    0x2c(%esp),%eax
 8049303:	89 04 24             	mov    %eax,(%esp)
 8049306:	e8 09 fd ff ff       	call   8049014 <strings_not_equal>
 804930b:	85 c0                	test   %eax,%eax
 804930d:	75 1d                	jne    804932c <phase_defused+0x81>
 804930f:	c7 04 24 a0 a2 04 08 	movl   $0x804a2a0,(%esp)
 8049316:	e8 e5 f4 ff ff       	call   8048800 <puts@plt>
 804931b:	c7 04 24 c8 a2 04 08 	movl   $0x804a2c8,(%esp)
 8049322:	e8 d9 f4 ff ff       	call   8048800 <puts@plt>
 8049327:	e8 d6 fb ff ff       	call   8048f02 <secret_phase>
 804932c:	c7 04 24 00 a3 04 08 	movl   $0x804a300,(%esp)
 8049333:	e8 c8 f4 ff ff       	call   8048800 <puts@plt>
 8049338:	8b 44 24 7c          	mov    0x7c(%esp),%eax
 804933c:	65 33 05 14 00 00 00 	xor    %gs:0x14,%eax
 8049343:	74 05                	je     804934a <phase_defused+0x9f>
 8049345:	e8 86 f4 ff ff       	call   80487d0 <__stack_chk_fail@plt>
 804934a:	81 c4 8c 00 00 00    	add    $0x8c,%esp
 8049350:	c3                   	ret    
 8049351:	90                   	nop
 8049352:	90                   	nop
 8049353:	90                   	nop
 8049354:	90                   	nop
 8049355:	90                   	nop
 8049356:	90                   	nop
 8049357:	90                   	nop
 8049358:	90                   	nop
 8049359:	90                   	nop
 804935a:	90                   	nop
 804935b:	90                   	nop
 804935c:	90                   	nop
 804935d:	90                   	nop
 804935e:	90                   	nop
 804935f:	90                   	nop

08049360 <rio_readlineb>:
 8049360:	55                   	push   %ebp
 8049361:	57                   	push   %edi
 8049362:	56                   	push   %esi
 8049363:	53                   	push   %ebx
 8049364:	83 ec 3c             	sub    $0x3c,%esp
 8049367:	89 c3                	mov    %eax,%ebx
 8049369:	83 f9 01             	cmp    $0x1,%ecx
 804936c:	0f 86 bb 00 00 00    	jbe    804942d <rio_readlineb+0xcd>
 8049372:	89 4c 24 1c          	mov    %ecx,0x1c(%esp)
 8049376:	89 54 24 18          	mov    %edx,0x18(%esp)
 804937a:	bd 01 00 00 00       	mov    $0x1,%ebp
 804937f:	8d 78 0c             	lea    0xc(%eax),%edi
 8049382:	eb 3c                	jmp    80493c0 <rio_readlineb+0x60>
 8049384:	c7 44 24 08 00 20 00 	movl   $0x2000,0x8(%esp)
 804938b:	00 
 804938c:	89 7c 24 04          	mov    %edi,0x4(%esp)
 8049390:	8b 03                	mov    (%ebx),%eax
 8049392:	89 04 24             	mov    %eax,(%esp)
 8049395:	e8 d6 f3 ff ff       	call   8048770 <read@plt>
 804939a:	89 43 04             	mov    %eax,0x4(%ebx)
 804939d:	85 c0                	test   %eax,%eax
 804939f:	79 14                	jns    80493b5 <rio_readlineb+0x55>
 80493a1:	e8 ea f4 ff ff       	call   8048890 <__errno_location@plt>
 80493a6:	83 38 04             	cmpl   $0x4,(%eax)
 80493a9:	74 15                	je     80493c0 <rio_readlineb+0x60>
 80493ab:	90                   	nop
 80493ac:	8d 74 26 00          	lea    0x0(%esi,%eiz,1),%esi
 80493b0:	e9 a0 00 00 00       	jmp    8049455 <rio_readlineb+0xf5>
 80493b5:	85 c0                	test   %eax,%eax
 80493b7:	0f 84 9f 00 00 00    	je     804945c <rio_readlineb+0xfc>
 80493bd:	89 7b 08             	mov    %edi,0x8(%ebx)
 80493c0:	8b 73 04             	mov    0x4(%ebx),%esi
 80493c3:	85 f6                	test   %esi,%esi
 80493c5:	7e bd                	jle    8049384 <rio_readlineb+0x24>
 80493c7:	85 f6                	test   %esi,%esi
 80493c9:	0f 85 96 00 00 00    	jne    8049465 <rio_readlineb+0x105>
 80493cf:	c7 44 24 0c 01 00 00 	movl   $0x1,0xc(%esp)
 80493d6:	00 
 80493d7:	89 74 24 08          	mov    %esi,0x8(%esp)
 80493db:	8b 43 08             	mov    0x8(%ebx),%eax
 80493de:	89 44 24 04          	mov    %eax,0x4(%esp)
 80493e2:	8d 44 24 2f          	lea    0x2f(%esp),%eax
 80493e6:	89 04 24             	mov    %eax,(%esp)
 80493e9:	e8 32 f4 ff ff       	call   8048820 <__memcpy_chk@plt>
 80493ee:	01 73 08             	add    %esi,0x8(%ebx)
 80493f1:	29 73 04             	sub    %esi,0x4(%ebx)
 80493f4:	83 fe 01             	cmp    $0x1,%esi
 80493f7:	75 18                	jne    8049411 <rio_readlineb+0xb1>
 80493f9:	0f b6 44 24 2f       	movzbl 0x2f(%esp),%eax
 80493fe:	8b 54 24 18          	mov    0x18(%esp),%edx
 8049402:	88 02                	mov    %al,(%edx)
 8049404:	83 c2 01             	add    $0x1,%edx
 8049407:	89 54 24 18          	mov    %edx,0x18(%esp)
 804940b:	3c 0a                	cmp    $0xa,%al
 804940d:	75 13                	jne    8049422 <rio_readlineb+0xc2>
 804940f:	eb 25                	jmp    8049436 <rio_readlineb+0xd6>
 8049411:	89 e8                	mov    %ebp,%eax
 8049413:	85 f6                	test   %esi,%esi
 8049415:	75 28                	jne    804943f <rio_readlineb+0xdf>
 8049417:	83 f8 01             	cmp    $0x1,%eax
 804941a:	75 1a                	jne    8049436 <rio_readlineb+0xd6>
 804941c:	8d 74 26 00          	lea    0x0(%esi,%eiz,1),%esi
 8049420:	eb 24                	jmp    8049446 <rio_readlineb+0xe6>
 8049422:	83 c5 01             	add    $0x1,%ebp
 8049425:	3b 6c 24 1c          	cmp    0x1c(%esp),%ebp
 8049429:	75 95                	jne    80493c0 <rio_readlineb+0x60>
 804942b:	eb 09                	jmp    8049436 <rio_readlineb+0xd6>
 804942d:	89 54 24 18          	mov    %edx,0x18(%esp)
 8049431:	bd 01 00 00 00       	mov    $0x1,%ebp
 8049436:	8b 44 24 18          	mov    0x18(%esp),%eax
 804943a:	c6 00 00             	movb   $0x0,(%eax)
 804943d:	eb 0c                	jmp    804944b <rio_readlineb+0xeb>
 804943f:	bd ff ff ff ff       	mov    $0xffffffff,%ebp
 8049444:	eb 05                	jmp    804944b <rio_readlineb+0xeb>
 8049446:	bd 00 00 00 00       	mov    $0x0,%ebp
 804944b:	89 e8                	mov    %ebp,%eax
 804944d:	83 c4 3c             	add    $0x3c,%esp
 8049450:	5b                   	pop    %ebx
 8049451:	5e                   	pop    %esi
 8049452:	5f                   	pop    %edi
 8049453:	5d                   	pop    %ebp
 8049454:	c3                   	ret    
 8049455:	be ff ff ff ff       	mov    $0xffffffff,%esi
 804945a:	eb 05                	jmp    8049461 <rio_readlineb+0x101>
 804945c:	be 00 00 00 00       	mov    $0x0,%esi
 8049461:	89 e8                	mov    %ebp,%eax
 8049463:	eb ae                	jmp    8049413 <rio_readlineb+0xb3>
 8049465:	8b 43 08             	mov    0x8(%ebx),%eax
 8049468:	0f b6 00             	movzbl (%eax),%eax
 804946b:	88 44 24 2f          	mov    %al,0x2f(%esp)
 804946f:	83 43 08 01          	addl   $0x1,0x8(%ebx)
 8049473:	83 6b 04 01          	subl   $0x1,0x4(%ebx)
 8049477:	eb 80                	jmp    80493f9 <rio_readlineb+0x99>

08049479 <sigalrm_handler>:
 8049479:	83 ec 1c             	sub    $0x1c,%esp
 804947c:	c7 44 24 0c 00 00 00 	movl   $0x0,0xc(%esp)
 8049483:	00 
 8049484:	c7 44 24 08 e8 a3 04 	movl   $0x804a3e8,0x8(%esp)
 804948b:	08 
 804948c:	c7 44 24 04 01 00 00 	movl   $0x1,0x4(%esp)
 8049493:	00 
 8049494:	a1 a0 c3 04 08       	mov    0x804c3a0,%eax
 8049499:	89 04 24             	mov    %eax,(%esp)
 804949c:	e8 1f f4 ff ff       	call   80488c0 <__fprintf_chk@plt>
 80494a1:	c7 04 24 01 00 00 00 	movl   $0x1,(%esp)
 80494a8:	e8 93 f3 ff ff       	call   8048840 <exit@plt>

080494ad <submitr>:
 80494ad:	55                   	push   %ebp
 80494ae:	57                   	push   %edi
 80494af:	56                   	push   %esi
 80494b0:	53                   	push   %ebx
 80494b1:	81 ec 7c a0 00 00    	sub    $0xa07c,%esp
 80494b7:	8b 9c 24 90 a0 00 00 	mov    0xa090(%esp),%ebx
 80494be:	8b 84 24 98 a0 00 00 	mov    0xa098(%esp),%eax
 80494c5:	89 44 24 30          	mov    %eax,0x30(%esp)
 80494c9:	8b 94 24 9c a0 00 00 	mov    0xa09c(%esp),%edx
 80494d0:	89 54 24 34          	mov    %edx,0x34(%esp)
 80494d4:	8b 8c 24 a0 a0 00 00 	mov    0xa0a0(%esp),%ecx
 80494db:	89 4c 24 38          	mov    %ecx,0x38(%esp)
 80494df:	8b ac 24 a4 a0 00 00 	mov    0xa0a4(%esp),%ebp
 80494e6:	8b 84 24 a8 a0 00 00 	mov    0xa0a8(%esp),%eax
 80494ed:	89 44 24 28          	mov    %eax,0x28(%esp)
 80494f1:	65 8b 15 14 00 00 00 	mov    %gs:0x14,%edx
 80494f8:	89 94 24 6c a0 00 00 	mov    %edx,0xa06c(%esp)
 80494ff:	31 d2                	xor    %edx,%edx
 8049501:	c7 44 24 44 00 00 00 	movl   $0x0,0x44(%esp)
 8049508:	00 
 8049509:	c7 44 24 08 00 00 00 	movl   $0x0,0x8(%esp)
 8049510:	00 
 8049511:	c7 44 24 04 01 00 00 	movl   $0x1,0x4(%esp)
 8049518:	00 
 8049519:	c7 04 24 02 00 00 00 	movl   $0x2,(%esp)
 8049520:	e8 8b f3 ff ff       	call   80488b0 <socket@plt>
 8049525:	89 44 24 2c          	mov    %eax,0x2c(%esp)
 8049529:	85 c0                	test   %eax,%eax
 804952b:	79 52                	jns    804957f <submitr+0xd2>
 804952d:	8b 4c 24 28          	mov    0x28(%esp),%ecx
 8049531:	c7 01 45 72 72 6f    	movl   $0x6f727245,(%ecx)
 8049537:	c7 41 04 72 3a 20 43 	movl   $0x43203a72,0x4(%ecx)
 804953e:	c7 41 08 6c 69 65 6e 	movl   $0x6e65696c,0x8(%ecx)
 8049545:	c7 41 0c 74 20 75 6e 	movl   $0x6e752074,0xc(%ecx)
 804954c:	c7 41 10 61 62 6c 65 	movl   $0x656c6261,0x10(%ecx)
 8049553:	c7 41 14 20 74 6f 20 	movl   $0x206f7420,0x14(%ecx)
 804955a:	c7 41 18 63 72 65 61 	movl   $0x61657263,0x18(%ecx)
 8049561:	c7 41 1c 74 65 20 73 	movl   $0x73206574,0x1c(%ecx)
 8049568:	c7 41 20 6f 63 6b 65 	movl   $0x656b636f,0x20(%ecx)
 804956f:	66 c7 41 24 74 00    	movw   $0x74,0x24(%ecx)
 8049575:	b8 ff ff ff ff       	mov    $0xffffffff,%eax
 804957a:	e9 e8 06 00 00       	jmp    8049c67 <submitr+0x7ba>
 804957f:	89 1c 24             	mov    %ebx,(%esp)
 8049582:	e8 49 f3 ff ff       	call   80488d0 <gethostbyname@plt>
 8049587:	85 c0                	test   %eax,%eax
 8049589:	75 70                	jne    80495fb <submitr+0x14e>
 804958b:	8b 44 24 28          	mov    0x28(%esp),%eax
 804958f:	c7 00 45 72 72 6f    	movl   $0x6f727245,(%eax)
 8049595:	c7 40 04 72 3a 20 44 	movl   $0x44203a72,0x4(%eax)
 804959c:	c7 40 08 4e 53 20 69 	movl   $0x6920534e,0x8(%eax)
 80495a3:	c7 40 0c 73 20 75 6e 	movl   $0x6e752073,0xc(%eax)
 80495aa:	c7 40 10 61 62 6c 65 	movl   $0x656c6261,0x10(%eax)
 80495b1:	c7 40 14 20 74 6f 20 	movl   $0x206f7420,0x14(%eax)
 80495b8:	c7 40 18 72 65 73 6f 	movl   $0x6f736572,0x18(%eax)
 80495bf:	c7 40 1c 6c 76 65 20 	movl   $0x2065766c,0x1c(%eax)
 80495c6:	c7 40 20 73 65 72 76 	movl   $0x76726573,0x20(%eax)
 80495cd:	c7 40 24 65 72 20 61 	movl   $0x61207265,0x24(%eax)
 80495d4:	c7 40 28 64 64 72 65 	movl   $0x65726464,0x28(%eax)
 80495db:	66 c7 40 2c 73 73    	movw   $0x7373,0x2c(%eax)
 80495e1:	c6 40 2e 00          	movb   $0x0,0x2e(%eax)
 80495e5:	8b 44 24 2c          	mov    0x2c(%esp),%eax
 80495e9:	89 04 24             	mov    %eax,(%esp)
 80495ec:	e8 0f f3 ff ff       	call   8048900 <close@plt>
 80495f1:	b8 ff ff ff ff       	mov    $0xffffffff,%eax
 80495f6:	e9 6c 06 00 00       	jmp    8049c67 <submitr+0x7ba>
 80495fb:	8d 9c 24 54 a0 00 00 	lea    0xa054(%esp),%ebx
 8049602:	c7 84 24 54 a0 00 00 	movl   $0x0,0xa054(%esp)
 8049609:	00 00 00 00 
 804960d:	c7 84 24 58 a0 00 00 	movl   $0x0,0xa058(%esp)
 8049614:	00 00 00 00 
 8049618:	c7 84 24 5c a0 00 00 	movl   $0x0,0xa05c(%esp)
 804961f:	00 00 00 00 
 8049623:	c7 84 24 60 a0 00 00 	movl   $0x0,0xa060(%esp)
 804962a:	00 00 00 00 
 804962e:	66 c7 84 24 54 a0 00 	movw   $0x2,0xa054(%esp)
 8049635:	00 02 00 
 8049638:	c7 44 24 0c 0c 00 00 	movl   $0xc,0xc(%esp)
 804963f:	00 
 8049640:	8b 50 0c             	mov    0xc(%eax),%edx
 8049643:	89 54 24 08          	mov    %edx,0x8(%esp)
 8049647:	8b 40 10             	mov    0x10(%eax),%eax
 804964a:	8b 00                	mov    (%eax),%eax
 804964c:	89 44 24 04          	mov    %eax,0x4(%esp)
 8049650:	8d 84 24 58 a0 00 00 	lea    0xa058(%esp),%eax
 8049657:	89 04 24             	mov    %eax,(%esp)
 804965a:	e8 b1 f1 ff ff       	call   8048810 <__memmove_chk@plt>
 804965f:	0f b7 84 24 94 a0 00 	movzwl 0xa094(%esp),%eax
 8049666:	00 
 8049667:	66 c1 c8 08          	ror    $0x8,%ax
 804966b:	66 89 84 24 56 a0 00 	mov    %ax,0xa056(%esp)
 8049672:	00 
 8049673:	c7 44 24 08 10 00 00 	movl   $0x10,0x8(%esp)
 804967a:	00 
 804967b:	89 5c 24 04          	mov    %ebx,0x4(%esp)
 804967f:	8b 44 24 2c          	mov    0x2c(%esp),%eax
 8049683:	89 04 24             	mov    %eax,(%esp)
 8049686:	e8 65 f2 ff ff       	call   80488f0 <connect@plt>
 804968b:	85 c0                	test   %eax,%eax
 804968d:	79 62                	jns    80496f1 <submitr+0x244>
 804968f:	8b 54 24 28          	mov    0x28(%esp),%edx
 8049693:	c7 02 45 72 72 6f    	movl   $0x6f727245,(%edx)
 8049699:	c7 42 04 72 3a 20 55 	movl   $0x55203a72,0x4(%edx)
 80496a0:	c7 42 08 6e 61 62 6c 	movl   $0x6c62616e,0x8(%edx)
 80496a7:	c7 42 0c 65 20 74 6f 	movl   $0x6f742065,0xc(%edx)
 80496ae:	c7 42 10 20 63 6f 6e 	movl   $0x6e6f6320,0x10(%edx)
 80496b5:	c7 42 14 6e 65 63 74 	movl   $0x7463656e,0x14(%edx)
 80496bc:	c7 42 18 20 74 6f 20 	movl   $0x206f7420,0x18(%edx)
 80496c3:	c7 42 1c 74 68 65 20 	movl   $0x20656874,0x1c(%edx)
 80496ca:	c7 42 20 73 65 72 76 	movl   $0x76726573,0x20(%edx)
 80496d1:	66 c7 42 24 65 72    	movw   $0x7265,0x24(%edx)
 80496d7:	c6 42 26 00          	movb   $0x0,0x26(%edx)
 80496db:	8b 44 24 2c          	mov    0x2c(%esp),%eax
 80496df:	89 04 24             	mov    %eax,(%esp)
 80496e2:	e8 19 f2 ff ff       	call   8048900 <close@plt>
 80496e7:	b8 ff ff ff ff       	mov    $0xffffffff,%eax
 80496ec:	e9 76 05 00 00       	jmp    8049c67 <submitr+0x7ba>
 80496f1:	ba ff ff ff ff       	mov    $0xffffffff,%edx
 80496f6:	89 ef                	mov    %ebp,%edi
 80496f8:	b8 00 00 00 00       	mov    $0x0,%eax
 80496fd:	89 d1                	mov    %edx,%ecx
 80496ff:	f2 ae                	repnz scas %es:(%edi),%al
 8049701:	89 cb                	mov    %ecx,%ebx
 8049703:	f7 d3                	not    %ebx
 8049705:	8b 7c 24 30          	mov    0x30(%esp),%edi
 8049709:	89 d1                	mov    %edx,%ecx
 804970b:	f2 ae                	repnz scas %es:(%edi),%al
 804970d:	89 4c 24 3c          	mov    %ecx,0x3c(%esp)
 8049711:	8b 7c 24 34          	mov    0x34(%esp),%edi
 8049715:	89 d1                	mov    %edx,%ecx
 8049717:	f2 ae                	repnz scas %es:(%edi),%al
 8049719:	89 ce                	mov    %ecx,%esi
 804971b:	f7 d6                	not    %esi
 804971d:	8b 7c 24 38          	mov    0x38(%esp),%edi
 8049721:	89 d1                	mov    %edx,%ecx
 8049723:	f2 ae                	repnz scas %es:(%edi),%al
 8049725:	2b 74 24 3c          	sub    0x3c(%esp),%esi
 8049729:	29 ce                	sub    %ecx,%esi
 804972b:	8d 44 5b fd          	lea    -0x3(%ebx,%ebx,2),%eax
 804972f:	8d 44 06 7b          	lea    0x7b(%esi,%eax,1),%eax
 8049733:	3d 00 20 00 00       	cmp    $0x2000,%eax
 8049738:	76 7b                	jbe    80497b5 <submitr+0x308>
 804973a:	8b 44 24 28          	mov    0x28(%esp),%eax
 804973e:	c7 00 45 72 72 6f    	movl   $0x6f727245,(%eax)
 8049744:	c7 40 04 72 3a 20 52 	movl   $0x52203a72,0x4(%eax)
 804974b:	c7 40 08 65 73 75 6c 	movl   $0x6c757365,0x8(%eax)
 8049752:	c7 40 0c 74 20 73 74 	movl   $0x74732074,0xc(%eax)
 8049759:	c7 40 10 72 69 6e 67 	movl   $0x676e6972,0x10(%eax)
 8049760:	c7 40 14 20 74 6f 6f 	movl   $0x6f6f7420,0x14(%eax)
 8049767:	c7 40 18 20 6c 61 72 	movl   $0x72616c20,0x18(%eax)
 804976e:	c7 40 1c 67 65 2e 20 	movl   $0x202e6567,0x1c(%eax)
 8049775:	c7 40 20 49 6e 63 72 	movl   $0x72636e49,0x20(%eax)
 804977c:	c7 40 24 65 61 73 65 	movl   $0x65736165,0x24(%eax)
 8049783:	c7 40 28 20 53 55 42 	movl   $0x42555320,0x28(%eax)
 804978a:	c7 40 2c 4d 49 54 52 	movl   $0x5254494d,0x2c(%eax)
 8049791:	c7 40 30 5f 4d 41 58 	movl   $0x58414d5f,0x30(%eax)
 8049798:	c7 40 34 42 55 46 00 	movl   $0x465542,0x34(%eax)
 804979f:	8b 44 24 2c          	mov    0x2c(%esp),%eax
 80497a3:	89 04 24             	mov    %eax,(%esp)
 80497a6:	e8 55 f1 ff ff       	call   8048900 <close@plt>
 80497ab:	b8 ff ff ff ff       	mov    $0xffffffff,%eax
 80497b0:	e9 b2 04 00 00       	jmp    8049c67 <submitr+0x7ba>
 80497b5:	8d 94 24 54 40 00 00 	lea    0x4054(%esp),%edx
 80497bc:	b9 00 08 00 00       	mov    $0x800,%ecx
 80497c1:	b8 00 00 00 00       	mov    $0x0,%eax
 80497c6:	89 d7                	mov    %edx,%edi
 80497c8:	f3 ab                	rep stos %eax,%es:(%edi)
 80497ca:	89 ef                	mov    %ebp,%edi
 80497cc:	b9 ff ff ff ff       	mov    $0xffffffff,%ecx
 80497d1:	f2 ae                	repnz scas %es:(%edi),%al
 80497d3:	f7 d1                	not    %ecx
 80497d5:	89 ce                	mov    %ecx,%esi
 80497d7:	83 ee 01             	sub    $0x1,%esi
 80497da:	0f 84 99 04 00 00    	je     8049c79 <submitr+0x7cc>
 80497e0:	89 d3                	mov    %edx,%ebx
 80497e2:	0f b6 45 00          	movzbl 0x0(%ebp),%eax
 80497e6:	3c 2a                	cmp    $0x2a,%al
 80497e8:	74 24                	je     804980e <submitr+0x361>
 80497ea:	3c 2d                	cmp    $0x2d,%al
 80497ec:	74 20                	je     804980e <submitr+0x361>
 80497ee:	3c 2e                	cmp    $0x2e,%al
 80497f0:	74 1c                	je     804980e <submitr+0x361>
 80497f2:	3c 5f                	cmp    $0x5f,%al
 80497f4:	74 18                	je     804980e <submitr+0x361>
 80497f6:	8d 50 d0             	lea    -0x30(%eax),%edx
 80497f9:	80 fa 09             	cmp    $0x9,%dl
 80497fc:	76 10                	jbe    804980e <submitr+0x361>
 80497fe:	8d 50 bf             	lea    -0x41(%eax),%edx
 8049801:	80 fa 19             	cmp    $0x19,%dl
 8049804:	76 08                	jbe    804980e <submitr+0x361>
 8049806:	8d 50 9f             	lea    -0x61(%eax),%edx
 8049809:	80 fa 19             	cmp    $0x19,%dl
 804980c:	77 07                	ja     8049815 <submitr+0x368>
 804980e:	88 03                	mov    %al,(%ebx)
 8049810:	83 c3 01             	add    $0x1,%ebx
 8049813:	eb 69                	jmp    804987e <submitr+0x3d1>
 8049815:	3c 20                	cmp    $0x20,%al
 8049817:	75 08                	jne    8049821 <submitr+0x374>
 8049819:	c6 03 2b             	movb   $0x2b,(%ebx)
 804981c:	83 c3 01             	add    $0x1,%ebx
 804981f:	eb 5d                	jmp    804987e <submitr+0x3d1>
 8049821:	8d 50 e0             	lea    -0x20(%eax),%edx
 8049824:	80 fa 5f             	cmp    $0x5f,%dl
 8049827:	76 04                	jbe    804982d <submitr+0x380>
 8049829:	3c 09                	cmp    $0x9,%al
 804982b:	75 62                	jne    804988f <submitr+0x3e2>
 804982d:	0f b6 c0             	movzbl %al,%eax
 8049830:	89 44 24 10          	mov    %eax,0x10(%esp)
 8049834:	c7 44 24 0c f4 a4 04 	movl   $0x804a4f4,0xc(%esp)
 804983b:	08 
 804983c:	c7 44 24 08 08 00 00 	movl   $0x8,0x8(%esp)
 8049843:	00 
 8049844:	c7 44 24 04 01 00 00 	movl   $0x1,0x4(%esp)
 804984b:	00 
 804984c:	8d 94 24 64 a0 00 00 	lea    0xa064(%esp),%edx
 8049853:	89 14 24             	mov    %edx,(%esp)
 8049856:	e8 c5 f0 ff ff       	call   8048920 <__sprintf_chk@plt>
 804985b:	0f b6 84 24 64 a0 00 	movzbl 0xa064(%esp),%eax
 8049862:	00 
 8049863:	88 03                	mov    %al,(%ebx)
 8049865:	0f b6 84 24 65 a0 00 	movzbl 0xa065(%esp),%eax
 804986c:	00 
 804986d:	88 43 01             	mov    %al,0x1(%ebx)
 8049870:	0f b6 84 24 66 a0 00 	movzbl 0xa066(%esp),%eax
 8049877:	00 
 8049878:	88 43 02             	mov    %al,0x2(%ebx)
 804987b:	83 c3 03             	add    $0x3,%ebx
 804987e:	83 c5 01             	add    $0x1,%ebp
 8049881:	83 ee 01             	sub    $0x1,%esi
 8049884:	0f 85 58 ff ff ff    	jne    80497e2 <submitr+0x335>
 804988a:	e9 ea 03 00 00       	jmp    8049c79 <submitr+0x7cc>
 804988f:	8b 7c 24 28          	mov    0x28(%esp),%edi
 8049893:	be 0c a4 04 08       	mov    $0x804a40c,%esi
 8049898:	b8 43 00 00 00       	mov    $0x43,%eax
 804989d:	f7 c7 01 00 00 00    	test   $0x1,%edi
 80498a3:	74 1a                	je     80498bf <submitr+0x412>
 80498a5:	0f b6 05 0c a4 04 08 	movzbl 0x804a40c,%eax
 80498ac:	88 07                	mov    %al,(%edi)
 80498ae:	8b 7c 24 28          	mov    0x28(%esp),%edi
 80498b2:	83 c7 01             	add    $0x1,%edi
 80498b5:	be 0d a4 04 08       	mov    $0x804a40d,%esi
 80498ba:	b8 42 00 00 00       	mov    $0x42,%eax
 80498bf:	f7 c7 02 00 00 00    	test   $0x2,%edi
 80498c5:	74 0f                	je     80498d6 <submitr+0x429>
 80498c7:	0f b7 16             	movzwl (%esi),%edx
 80498ca:	66 89 17             	mov    %dx,(%edi)
 80498cd:	83 c7 02             	add    $0x2,%edi
 80498d0:	83 c6 02             	add    $0x2,%esi
 80498d3:	83 e8 02             	sub    $0x2,%eax
 80498d6:	89 c1                	mov    %eax,%ecx
 80498d8:	c1 e9 02             	shr    $0x2,%ecx
 80498db:	f3 a5                	rep movsl %ds:(%esi),%es:(%edi)
 80498dd:	ba 00 00 00 00       	mov    $0x0,%edx
 80498e2:	a8 02                	test   $0x2,%al
 80498e4:	74 0b                	je     80498f1 <submitr+0x444>
 80498e6:	0f b7 16             	movzwl (%esi),%edx
 80498e9:	66 89 17             	mov    %dx,(%edi)
 80498ec:	ba 02 00 00 00       	mov    $0x2,%edx
 80498f1:	a8 01                	test   $0x1,%al
 80498f3:	74 07                	je     80498fc <submitr+0x44f>
 80498f5:	0f b6 04 16          	movzbl (%esi,%edx,1),%eax
 80498f9:	88 04 17             	mov    %al,(%edi,%edx,1)
 80498fc:	8b 44 24 2c          	mov    0x2c(%esp),%eax
 8049900:	89 04 24             	mov    %eax,(%esp)
 8049903:	e8 f8 ef ff ff       	call   8048900 <close@plt>
 8049908:	b8 ff ff ff ff       	mov    $0xffffffff,%eax
 804990d:	e9 55 03 00 00       	jmp    8049c67 <submitr+0x7ba>
 8049912:	89 fd                	mov    %edi,%ebp
 8049914:	8b 7c 24 2c          	mov    0x2c(%esp),%edi
 8049918:	89 5c 24 08          	mov    %ebx,0x8(%esp)
 804991c:	89 74 24 04          	mov    %esi,0x4(%esp)
 8049920:	89 3c 24             	mov    %edi,(%esp)
 8049923:	e8 38 ef ff ff       	call   8048860 <write@plt>
 8049928:	85 c0                	test   %eax,%eax
 804992a:	7f 0f                	jg     804993b <submitr+0x48e>
 804992c:	e8 5f ef ff ff       	call   8048890 <__errno_location@plt>
 8049931:	83 38 04             	cmpl   $0x4,(%eax)
 8049934:	75 0f                	jne    8049945 <submitr+0x498>
 8049936:	b8 00 00 00 00       	mov    $0x0,%eax
 804993b:	01 c6                	add    %eax,%esi
 804993d:	29 c3                	sub    %eax,%ebx
 804993f:	75 d7                	jne    8049918 <submitr+0x46b>
 8049941:	85 ed                	test   %ebp,%ebp
 8049943:	79 66                	jns    80499ab <submitr+0x4fe>
 8049945:	8b 54 24 28          	mov    0x28(%esp),%edx
 8049949:	c7 02 45 72 72 6f    	movl   $0x6f727245,(%edx)
 804994f:	c7 42 04 72 3a 20 43 	movl   $0x43203a72,0x4(%edx)
 8049956:	c7 42 08 6c 69 65 6e 	movl   $0x6e65696c,0x8(%edx)
 804995d:	c7 42 0c 74 20 75 6e 	movl   $0x6e752074,0xc(%edx)
 8049964:	c7 42 10 61 62 6c 65 	movl   $0x656c6261,0x10(%edx)
 804996b:	c7 42 14 20 74 6f 20 	movl   $0x206f7420,0x14(%edx)
 8049972:	c7 42 18 77 72 69 74 	movl   $0x74697277,0x18(%edx)
 8049979:	c7 42 1c 65 20 74 6f 	movl   $0x6f742065,0x1c(%edx)
 8049980:	c7 42 20 20 74 68 65 	movl   $0x65687420,0x20(%edx)
 8049987:	c7 42 24 20 73 65 72 	movl   $0x72657320,0x24(%edx)
 804998e:	c7 42 28 76 65 72 00 	movl   $0x726576,0x28(%edx)
 8049995:	8b 44 24 2c          	mov    0x2c(%esp),%eax
 8049999:	89 04 24             	mov    %eax,(%esp)
 804999c:	e8 5f ef ff ff       	call   8048900 <close@plt>
 80499a1:	b8 ff ff ff ff       	mov    $0xffffffff,%eax
 80499a6:	e9 bc 02 00 00       	jmp    8049c67 <submitr+0x7ba>
 80499ab:	8b 44 24 2c          	mov    0x2c(%esp),%eax
 80499af:	89 44 24 48          	mov    %eax,0x48(%esp)
 80499b3:	c7 44 24 4c 00 00 00 	movl   $0x0,0x4c(%esp)
 80499ba:	00 
 80499bb:	8d 44 24 54          	lea    0x54(%esp),%eax
 80499bf:	89 44 24 50          	mov    %eax,0x50(%esp)
 80499c3:	b9 00 20 00 00       	mov    $0x2000,%ecx
 80499c8:	8d 94 24 54 20 00 00 	lea    0x2054(%esp),%edx
 80499cf:	8d 44 24 48          	lea    0x48(%esp),%eax
 80499d3:	e8 88 f9 ff ff       	call   8049360 <rio_readlineb>
 80499d8:	85 c0                	test   %eax,%eax
 80499da:	7f 7a                	jg     8049a56 <submitr+0x5a9>
 80499dc:	8b 54 24 28          	mov    0x28(%esp),%edx
 80499e0:	c7 02 45 72 72 6f    	movl   $0x6f727245,(%edx)
 80499e6:	c7 42 04 72 3a 20 43 	movl   $0x43203a72,0x4(%edx)
 80499ed:	c7 42 08 6c 69 65 6e 	movl   $0x6e65696c,0x8(%edx)
 80499f4:	c7 42 0c 74 20 75 6e 	movl   $0x6e752074,0xc(%edx)
 80499fb:	c7 42 10 61 62 6c 65 	movl   $0x656c6261,0x10(%edx)
 8049a02:	c7 42 14 20 74 6f 20 	movl   $0x206f7420,0x14(%edx)
 8049a09:	c7 42 18 72 65 61 64 	movl   $0x64616572,0x18(%edx)
 8049a10:	c7 42 1c 20 66 69 72 	movl   $0x72696620,0x1c(%edx)
 8049a17:	c7 42 20 73 74 20 68 	movl   $0x68207473,0x20(%edx)
 8049a1e:	c7 42 24 65 61 64 65 	movl   $0x65646165,0x24(%edx)
 8049a25:	c7 42 28 72 20 66 72 	movl   $0x72662072,0x28(%edx)
 8049a2c:	c7 42 2c 6f 6d 20 73 	movl   $0x73206d6f,0x2c(%edx)
 8049a33:	c7 42 30 65 72 76 65 	movl   $0x65767265,0x30(%edx)
 8049a3a:	66 c7 42 34 72 00    	movw   $0x72,0x34(%edx)
 8049a40:	8b 44 24 2c          	mov    0x2c(%esp),%eax
 8049a44:	89 04 24             	mov    %eax,(%esp)
 8049a47:	e8 b4 ee ff ff       	call   8048900 <close@plt>
 8049a4c:	b8 ff ff ff ff       	mov    $0xffffffff,%eax
 8049a51:	e9 11 02 00 00       	jmp    8049c67 <submitr+0x7ba>
 8049a56:	8d 84 24 54 80 00 00 	lea    0x8054(%esp),%eax
 8049a5d:	89 44 24 10          	mov    %eax,0x10(%esp)
 8049a61:	8d 44 24 44          	lea    0x44(%esp),%eax
 8049a65:	89 44 24 0c          	mov    %eax,0xc(%esp)
 8049a69:	8d 84 24 54 60 00 00 	lea    0x6054(%esp),%eax
 8049a70:	89 44 24 08          	mov    %eax,0x8(%esp)
 8049a74:	c7 44 24 04 fb a4 04 	movl   $0x804a4fb,0x4(%esp)
 8049a7b:	08 
 8049a7c:	8d 84 24 54 20 00 00 	lea    0x2054(%esp),%eax
 8049a83:	89 04 24             	mov    %eax,(%esp)
 8049a86:	e8 e5 ed ff ff       	call   8048870 <__isoc99_sscanf@plt>
 8049a8b:	8b 44 24 44          	mov    0x44(%esp),%eax
 8049a8f:	3d c8 00 00 00       	cmp    $0xc8,%eax
 8049a94:	0f 84 d3 00 00 00    	je     8049b6d <submitr+0x6c0>
 8049a9a:	8d 94 24 54 80 00 00 	lea    0x8054(%esp),%edx
 8049aa1:	89 54 24 14          	mov    %edx,0x14(%esp)
 8049aa5:	89 44 24 10          	mov    %eax,0x10(%esp)
 8049aa9:	c7 44 24 0c 50 a4 04 	movl   $0x804a450,0xc(%esp)
 8049ab0:	08 
 8049ab1:	c7 44 24 08 ff ff ff 	movl   $0xffffffff,0x8(%esp)
 8049ab8:	ff 
 8049ab9:	c7 44 24 04 01 00 00 	movl   $0x1,0x4(%esp)
 8049ac0:	00 
 8049ac1:	8b 54 24 28          	mov    0x28(%esp),%edx
 8049ac5:	89 14 24             	mov    %edx,(%esp)
 8049ac8:	e8 53 ee ff ff       	call   8048920 <__sprintf_chk@plt>
 8049acd:	8b 44 24 2c          	mov    0x2c(%esp),%eax
 8049ad1:	89 04 24             	mov    %eax,(%esp)
 8049ad4:	e8 27 ee ff ff       	call   8048900 <close@plt>
 8049ad9:	b8 ff ff ff ff       	mov    $0xffffffff,%eax
 8049ade:	e9 84 01 00 00       	jmp    8049c67 <submitr+0x7ba>
 8049ae3:	b9 00 20 00 00       	mov    $0x2000,%ecx
 8049ae8:	8d 94 24 54 20 00 00 	lea    0x2054(%esp),%edx
 8049aef:	8d 44 24 48          	lea    0x48(%esp),%eax
 8049af3:	e8 68 f8 ff ff       	call   8049360 <rio_readlineb>
 8049af8:	85 c0                	test   %eax,%eax
 8049afa:	7f 71                	jg     8049b6d <submitr+0x6c0>
 8049afc:	8b 54 24 28          	mov    0x28(%esp),%edx
 8049b00:	c7 02 45 72 72 6f    	movl   $0x6f727245,(%edx)
 8049b06:	c7 42 04 72 3a 20 43 	movl   $0x43203a72,0x4(%edx)
 8049b0d:	c7 42 08 6c 69 65 6e 	movl   $0x6e65696c,0x8(%edx)
 8049b14:	c7 42 0c 74 20 75 6e 	movl   $0x6e752074,0xc(%edx)
 8049b1b:	c7 42 10 61 62 6c 65 	movl   $0x656c6261,0x10(%edx)
 8049b22:	c7 42 14 20 74 6f 20 	movl   $0x206f7420,0x14(%edx)
 8049b29:	c7 42 18 72 65 61 64 	movl   $0x64616572,0x18(%edx)
 8049b30:	c7 42 1c 20 68 65 61 	movl   $0x61656820,0x1c(%edx)
 8049b37:	c7 42 20 64 65 72 73 	movl   $0x73726564,0x20(%edx)
 8049b3e:	c7 42 24 20 66 72 6f 	movl   $0x6f726620,0x24(%edx)
 8049b45:	c7 42 28 6d 20 73 65 	movl   $0x6573206d,0x28(%edx)
 8049b4c:	c7 42 2c 72 76 65 72 	movl   $0x72657672,0x2c(%edx)
 8049b53:	c6 42 30 00          	movb   $0x0,0x30(%edx)
 8049b57:	8b 44 24 2c          	mov    0x2c(%esp),%eax
 8049b5b:	89 04 24             	mov    %eax,(%esp)
 8049b5e:	e8 9d ed ff ff       	call   8048900 <close@plt>
 8049b63:	b8 ff ff ff ff       	mov    $0xffffffff,%eax
 8049b68:	e9 fa 00 00 00       	jmp    8049c67 <submitr+0x7ba>
 8049b6d:	80 bc 24 54 20 00 00 	cmpb   $0xd,0x2054(%esp)
 8049b74:	0d 
 8049b75:	0f 85 68 ff ff ff    	jne    8049ae3 <submitr+0x636>
 8049b7b:	80 bc 24 55 20 00 00 	cmpb   $0xa,0x2055(%esp)
 8049b82:	0a 
 8049b83:	0f 85 5a ff ff ff    	jne    8049ae3 <submitr+0x636>
 8049b89:	80 bc 24 56 20 00 00 	cmpb   $0x0,0x2056(%esp)
 8049b90:	00 
 8049b91:	0f 85 4c ff ff ff    	jne    8049ae3 <submitr+0x636>
 8049b97:	b9 00 20 00 00       	mov    $0x2000,%ecx
 8049b9c:	8d 94 24 54 20 00 00 	lea    0x2054(%esp),%edx
 8049ba3:	8d 44 24 48          	lea    0x48(%esp),%eax
 8049ba7:	e8 b4 f7 ff ff       	call   8049360 <rio_readlineb>
 8049bac:	85 c0                	test   %eax,%eax
 8049bae:	7f 78                	jg     8049c28 <submitr+0x77b>
 8049bb0:	8b 54 24 28          	mov    0x28(%esp),%edx
 8049bb4:	c7 02 45 72 72 6f    	movl   $0x6f727245,(%edx)
 8049bba:	c7 42 04 72 3a 20 43 	movl   $0x43203a72,0x4(%edx)
 8049bc1:	c7 42 08 6c 69 65 6e 	movl   $0x6e65696c,0x8(%edx)
 8049bc8:	c7 42 0c 74 20 75 6e 	movl   $0x6e752074,0xc(%edx)
 8049bcf:	c7 42 10 61 62 6c 65 	movl   $0x656c6261,0x10(%edx)
 8049bd6:	c7 42 14 20 74 6f 20 	movl   $0x206f7420,0x14(%edx)
 8049bdd:	c7 42 18 72 65 61 64 	movl   $0x64616572,0x18(%edx)
 8049be4:	c7 42 1c 20 73 74 61 	movl   $0x61747320,0x1c(%edx)
 8049beb:	c7 42 20 74 75 73 20 	movl   $0x20737574,0x20(%edx)
 8049bf2:	c7 42 24 6d 65 73 73 	movl   $0x7373656d,0x24(%edx)
 8049bf9:	c7 42 28 61 67 65 20 	movl   $0x20656761,0x28(%edx)
 8049c00:	c7 42 2c 66 72 6f 6d 	movl   $0x6d6f7266,0x2c(%edx)
 8049c07:	c7 42 30 20 73 65 72 	movl   $0x72657320,0x30(%edx)
 8049c0e:	c7 42 34 76 65 72 00 	movl   $0x726576,0x34(%edx)
 8049c15:	8b 44 24 2c          	mov    0x2c(%esp),%eax
 8049c19:	89 04 24             	mov    %eax,(%esp)
 8049c1c:	e8 df ec ff ff       	call   8048900 <close@plt>
 8049c21:	b8 ff ff ff ff       	mov    $0xffffffff,%eax
 8049c26:	eb 3f                	jmp    8049c67 <submitr+0x7ba>
 8049c28:	8d 84 24 54 20 00 00 	lea    0x2054(%esp),%eax
 8049c2f:	89 44 24 04          	mov    %eax,0x4(%esp)
 8049c33:	8b 54 24 28          	mov    0x28(%esp),%edx
 8049c37:	89 14 24             	mov    %edx,(%esp)
 8049c3a:	e8 a1 eb ff ff       	call   80487e0 <strcpy@plt>
 8049c3f:	8b 44 24 2c          	mov    0x2c(%esp),%eax
 8049c43:	89 04 24             	mov    %eax,(%esp)
 8049c46:	e8 b5 ec ff ff       	call   8048900 <close@plt>
 8049c4b:	b8 ff ff ff ff       	mov    $0xffffffff,%eax
 8049c50:	8b 54 24 28          	mov    0x28(%esp),%edx
 8049c54:	80 3a 4f             	cmpb   $0x4f,(%edx)
 8049c57:	75 0e                	jne    8049c67 <submitr+0x7ba>
 8049c59:	80 7a 01 4b          	cmpb   $0x4b,0x1(%edx)
 8049c5d:	75 08                	jne    8049c67 <submitr+0x7ba>
 8049c5f:	80 7a 02 01          	cmpb   $0x1,0x2(%edx)
 8049c63:	19 c0                	sbb    %eax,%eax
 8049c65:	f7 d0                	not    %eax
 8049c67:	8b 8c 24 6c a0 00 00 	mov    0xa06c(%esp),%ecx
 8049c6e:	65 33 0d 14 00 00 00 	xor    %gs:0x14,%ecx
 8049c75:	74 78                	je     8049cef <submitr+0x842>
 8049c77:	eb 71                	jmp    8049cea <submitr+0x83d>
 8049c79:	8d 84 24 54 40 00 00 	lea    0x4054(%esp),%eax
 8049c80:	89 44 24 1c          	mov    %eax,0x1c(%esp)
 8049c84:	8b 44 24 38          	mov    0x38(%esp),%eax
 8049c88:	89 44 24 18          	mov    %eax,0x18(%esp)
 8049c8c:	8b 54 24 34          	mov    0x34(%esp),%edx
 8049c90:	89 54 24 14          	mov    %edx,0x14(%esp)
 8049c94:	8b 4c 24 30          	mov    0x30(%esp),%ecx
 8049c98:	89 4c 24 10          	mov    %ecx,0x10(%esp)
 8049c9c:	c7 44 24 0c 80 a4 04 	movl   $0x804a480,0xc(%esp)
 8049ca3:	08 
 8049ca4:	c7 44 24 08 00 20 00 	movl   $0x2000,0x8(%esp)
 8049cab:	00 
 8049cac:	c7 44 24 04 01 00 00 	movl   $0x1,0x4(%esp)
 8049cb3:	00 
 8049cb4:	8d bc 24 54 20 00 00 	lea    0x2054(%esp),%edi
 8049cbb:	89 3c 24             	mov    %edi,(%esp)
 8049cbe:	e8 5d ec ff ff       	call   8048920 <__sprintf_chk@plt>
 8049cc3:	b8 00 00 00 00       	mov    $0x0,%eax
 8049cc8:	b9 ff ff ff ff       	mov    $0xffffffff,%ecx
 8049ccd:	f2 ae                	repnz scas %es:(%edi),%al
 8049ccf:	f7 d1                	not    %ecx
 8049cd1:	8d 79 ff             	lea    -0x1(%ecx),%edi
 8049cd4:	89 fb                	mov    %edi,%ebx
 8049cd6:	8d b4 24 54 20 00 00 	lea    0x2054(%esp),%esi
 8049cdd:	85 ff                	test   %edi,%edi
 8049cdf:	0f 85 2d fc ff ff    	jne    8049912 <submitr+0x465>
 8049ce5:	e9 c1 fc ff ff       	jmp    80499ab <submitr+0x4fe>
 8049cea:	e8 e1 ea ff ff       	call   80487d0 <__stack_chk_fail@plt>
 8049cef:	81 c4 7c a0 00 00    	add    $0xa07c,%esp
 8049cf5:	5b                   	pop    %ebx
 8049cf6:	5e                   	pop    %esi
 8049cf7:	5f                   	pop    %edi
 8049cf8:	5d                   	pop    %ebp
 8049cf9:	c3                   	ret    

08049cfa <init_timeout>:
 8049cfa:	53                   	push   %ebx
 8049cfb:	83 ec 18             	sub    $0x18,%esp
 8049cfe:	8b 5c 24 20          	mov    0x20(%esp),%ebx
 8049d02:	85 db                	test   %ebx,%ebx
 8049d04:	74 26                	je     8049d2c <init_timeout+0x32>
 8049d06:	c7 44 24 04 79 94 04 	movl   $0x8049479,0x4(%esp)
 8049d0d:	08 
 8049d0e:	c7 04 24 0e 00 00 00 	movl   $0xe,(%esp)
 8049d15:	e8 86 ea ff ff       	call   80487a0 <signal@plt>
 8049d1a:	85 db                	test   %ebx,%ebx
 8049d1c:	b8 00 00 00 00       	mov    $0x0,%eax
 8049d21:	0f 48 d8             	cmovs  %eax,%ebx
 8049d24:	89 1c 24             	mov    %ebx,(%esp)
 8049d27:	e8 94 ea ff ff       	call   80487c0 <alarm@plt>
 8049d2c:	83 c4 18             	add    $0x18,%esp
 8049d2f:	5b                   	pop    %ebx
 8049d30:	c3                   	ret    

08049d31 <init_driver>:
 8049d31:	57                   	push   %edi
 8049d32:	56                   	push   %esi
 8049d33:	53                   	push   %ebx
 8049d34:	83 ec 40             	sub    $0x40,%esp
 8049d37:	8b 74 24 50          	mov    0x50(%esp),%esi
 8049d3b:	65 a1 14 00 00 00    	mov    %gs:0x14,%eax
 8049d41:	89 44 24 3c          	mov    %eax,0x3c(%esp)
 8049d45:	31 c0                	xor    %eax,%eax
 8049d47:	c7 44 24 04 01 00 00 	movl   $0x1,0x4(%esp)
 8049d4e:	00 
 8049d4f:	c7 04 24 0d 00 00 00 	movl   $0xd,(%esp)
 8049d56:	e8 45 ea ff ff       	call   80487a0 <signal@plt>
 8049d5b:	c7 44 24 04 01 00 00 	movl   $0x1,0x4(%esp)
 8049d62:	00 
 8049d63:	c7 04 24 1d 00 00 00 	movl   $0x1d,(%esp)
 8049d6a:	e8 31 ea ff ff       	call   80487a0 <signal@plt>
 8049d6f:	c7 44 24 04 01 00 00 	movl   $0x1,0x4(%esp)
 8049d76:	00 
 8049d77:	c7 04 24 1d 00 00 00 	movl   $0x1d,(%esp)
 8049d7e:	e8 1d ea ff ff       	call   80487a0 <signal@plt>
 8049d83:	c7 44 24 08 00 00 00 	movl   $0x0,0x8(%esp)
 8049d8a:	00 
 8049d8b:	c7 44 24 04 01 00 00 	movl   $0x1,0x4(%esp)
 8049d92:	00 
 8049d93:	c7 04 24 02 00 00 00 	movl   $0x2,(%esp)
 8049d9a:	e8 11 eb ff ff       	call   80488b0 <socket@plt>
 8049d9f:	89 c3                	mov    %eax,%ebx
 8049da1:	85 c0                	test   %eax,%eax
 8049da3:	79 4e                	jns    8049df3 <init_driver+0xc2>
 8049da5:	c7 06 45 72 72 6f    	movl   $0x6f727245,(%esi)
 8049dab:	c7 46 04 72 3a 20 43 	movl   $0x43203a72,0x4(%esi)
 8049db2:	c7 46 08 6c 69 65 6e 	movl   $0x6e65696c,0x8(%esi)
 8049db9:	c7 46 0c 74 20 75 6e 	movl   $0x6e752074,0xc(%esi)
 8049dc0:	c7 46 10 61 62 6c 65 	movl   $0x656c6261,0x10(%esi)
 8049dc7:	c7 46 14 20 74 6f 20 	movl   $0x206f7420,0x14(%esi)
 8049dce:	c7 46 18 63 72 65 61 	movl   $0x61657263,0x18(%esi)
 8049dd5:	c7 46 1c 74 65 20 73 	movl   $0x73206574,0x1c(%esi)
 8049ddc:	c7 46 20 6f 63 6b 65 	movl   $0x656b636f,0x20(%esi)
 8049de3:	66 c7 46 24 74 00    	movw   $0x74,0x24(%esi)
 8049de9:	b8 ff ff ff ff       	mov    $0xffffffff,%eax
 8049dee:	e9 33 01 00 00       	jmp    8049f26 <init_driver+0x1f5>
 8049df3:	c7 04 24 0c a5 04 08 	movl   $0x804a50c,(%esp)
 8049dfa:	e8 d1 ea ff ff       	call   80488d0 <gethostbyname@plt>
 8049dff:	85 c0                	test   %eax,%eax
 8049e01:	75 68                	jne    8049e6b <init_driver+0x13a>
 8049e03:	c7 06 45 72 72 6f    	movl   $0x6f727245,(%esi)
 8049e09:	c7 46 04 72 3a 20 44 	movl   $0x44203a72,0x4(%esi)
 8049e10:	c7 46 08 4e 53 20 69 	movl   $0x6920534e,0x8(%esi)
 8049e17:	c7 46 0c 73 20 75 6e 	movl   $0x6e752073,0xc(%esi)
 8049e1e:	c7 46 10 61 62 6c 65 	movl   $0x656c6261,0x10(%esi)
 8049e25:	c7 46 14 20 74 6f 20 	movl   $0x206f7420,0x14(%esi)
 8049e2c:	c7 46 18 72 65 73 6f 	movl   $0x6f736572,0x18(%esi)
 8049e33:	c7 46 1c 6c 76 65 20 	movl   $0x2065766c,0x1c(%esi)
 8049e3a:	c7 46 20 73 65 72 76 	movl   $0x76726573,0x20(%esi)
 8049e41:	c7 46 24 65 72 20 61 	movl   $0x61207265,0x24(%esi)
 8049e48:	c7 46 28 64 64 72 65 	movl   $0x65726464,0x28(%esi)
 8049e4f:	66 c7 46 2c 73 73    	movw   $0x7373,0x2c(%esi)
 8049e55:	c6 46 2e 00          	movb   $0x0,0x2e(%esi)
 8049e59:	89 1c 24             	mov    %ebx,(%esp)
 8049e5c:	e8 9f ea ff ff       	call   8048900 <close@plt>
 8049e61:	b8 ff ff ff ff       	mov    $0xffffffff,%eax
 8049e66:	e9 bb 00 00 00       	jmp    8049f26 <init_driver+0x1f5>
 8049e6b:	8d 7c 24 2c          	lea    0x2c(%esp),%edi
 8049e6f:	c7 44 24 2c 00 00 00 	movl   $0x0,0x2c(%esp)
 8049e76:	00 
 8049e77:	c7 44 24 30 00 00 00 	movl   $0x0,0x30(%esp)
 8049e7e:	00 
 8049e7f:	c7 44 24 34 00 00 00 	movl   $0x0,0x34(%esp)
 8049e86:	00 
 8049e87:	c7 44 24 38 00 00 00 	movl   $0x0,0x38(%esp)
 8049e8e:	00 
 8049e8f:	66 c7 44 24 2c 02 00 	movw   $0x2,0x2c(%esp)
 8049e96:	c7 44 24 0c 0c 00 00 	movl   $0xc,0xc(%esp)
 8049e9d:	00 
 8049e9e:	8b 50 0c             	mov    0xc(%eax),%edx
 8049ea1:	89 54 24 08          	mov    %edx,0x8(%esp)
 8049ea5:	8b 40 10             	mov    0x10(%eax),%eax
 8049ea8:	8b 00                	mov    (%eax),%eax
 8049eaa:	89 44 24 04          	mov    %eax,0x4(%esp)
 8049eae:	8d 44 24 30          	lea    0x30(%esp),%eax
 8049eb2:	89 04 24             	mov    %eax,(%esp)
 8049eb5:	e8 56 e9 ff ff       	call   8048810 <__memmove_chk@plt>
 8049eba:	66 c7 44 24 2e 3b 6e 	movw   $0x6e3b,0x2e(%esp)
 8049ec1:	c7 44 24 08 10 00 00 	movl   $0x10,0x8(%esp)
 8049ec8:	00 
 8049ec9:	89 7c 24 04          	mov    %edi,0x4(%esp)
 8049ecd:	89 1c 24             	mov    %ebx,(%esp)
 8049ed0:	e8 1b ea ff ff       	call   80488f0 <connect@plt>
 8049ed5:	85 c0                	test   %eax,%eax
 8049ed7:	79 37                	jns    8049f10 <init_driver+0x1df>
 8049ed9:	c7 44 24 10 0c a5 04 	movl   $0x804a50c,0x10(%esp)
 8049ee0:	08 
 8049ee1:	c7 44 24 0c cc a4 04 	movl   $0x804a4cc,0xc(%esp)
 8049ee8:	08 
 8049ee9:	c7 44 24 08 ff ff ff 	movl   $0xffffffff,0x8(%esp)
 8049ef0:	ff 
 8049ef1:	c7 44 24 04 01 00 00 	movl   $0x1,0x4(%esp)
 8049ef8:	00 
 8049ef9:	89 34 24             	mov    %esi,(%esp)
 8049efc:	e8 1f ea ff ff       	call   8048920 <__sprintf_chk@plt>
 8049f01:	89 1c 24             	mov    %ebx,(%esp)
 8049f04:	e8 f7 e9 ff ff       	call   8048900 <close@plt>
 8049f09:	b8 ff ff ff ff       	mov    $0xffffffff,%eax
 8049f0e:	eb 16                	jmp    8049f26 <init_driver+0x1f5>
 8049f10:	89 1c 24             	mov    %ebx,(%esp)
 8049f13:	e8 e8 e9 ff ff       	call   8048900 <close@plt>
 8049f18:	66 c7 06 4f 4b       	movw   $0x4b4f,(%esi)
 8049f1d:	c6 46 02 00          	movb   $0x0,0x2(%esi)
 8049f21:	b8 00 00 00 00       	mov    $0x0,%eax
 8049f26:	8b 54 24 3c          	mov    0x3c(%esp),%edx
 8049f2a:	65 33 15 14 00 00 00 	xor    %gs:0x14,%edx
 8049f31:	74 05                	je     8049f38 <init_driver+0x207>
 8049f33:	e8 98 e8 ff ff       	call   80487d0 <__stack_chk_fail@plt>
 8049f38:	83 c4 40             	add    $0x40,%esp
 8049f3b:	5b                   	pop    %ebx
 8049f3c:	5e                   	pop    %esi
 8049f3d:	5f                   	pop    %edi
 8049f3e:	c3                   	ret    

08049f3f <driver_post>:
 8049f3f:	53                   	push   %ebx
 8049f40:	83 ec 28             	sub    $0x28,%esp
 8049f43:	8b 44 24 30          	mov    0x30(%esp),%eax
 8049f47:	8b 54 24 34          	mov    0x34(%esp),%edx
 8049f4b:	8b 5c 24 3c          	mov    0x3c(%esp),%ebx
 8049f4f:	83 7c 24 38 00       	cmpl   $0x0,0x38(%esp)
 8049f54:	74 28                	je     8049f7e <driver_post+0x3f>
 8049f56:	89 54 24 08          	mov    %edx,0x8(%esp)
 8049f5a:	c7 44 24 04 1f a5 04 	movl   $0x804a51f,0x4(%esp)
 8049f61:	08 
 8049f62:	c7 04 24 01 00 00 00 	movl   $0x1,(%esp)
 8049f69:	e8 32 e9 ff ff       	call   80488a0 <__printf_chk@plt>
 8049f6e:	66 c7 03 4f 4b       	movw   $0x4b4f,(%ebx)
 8049f73:	c6 43 02 00          	movb   $0x0,0x2(%ebx)
 8049f77:	b8 00 00 00 00       	mov    $0x0,%eax
 8049f7c:	eb 49                	jmp    8049fc7 <driver_post+0x88>
 8049f7e:	85 c0                	test   %eax,%eax
 8049f80:	74 37                	je     8049fb9 <driver_post+0x7a>
 8049f82:	80 38 00             	cmpb   $0x0,(%eax)
 8049f85:	74 32                	je     8049fb9 <driver_post+0x7a>
 8049f87:	89 5c 24 18          	mov    %ebx,0x18(%esp)
 8049f8b:	89 54 24 14          	mov    %edx,0x14(%esp)
 8049f8f:	c7 44 24 10 36 a5 04 	movl   $0x804a536,0x10(%esp)
 8049f96:	08 
 8049f97:	89 44 24 0c          	mov    %eax,0xc(%esp)
 8049f9b:	c7 44 24 08 3a a5 04 	movl   $0x804a53a,0x8(%esp)
 8049fa2:	08 
 8049fa3:	c7 44 24 04 6e 3b 00 	movl   $0x3b6e,0x4(%esp)
 8049faa:	00 
 8049fab:	c7 04 24 0c a5 04 08 	movl   $0x804a50c,(%esp)
 8049fb2:	e8 f6 f4 ff ff       	call   80494ad <submitr>
 8049fb7:	eb 0e                	jmp    8049fc7 <driver_post+0x88>
 8049fb9:	66 c7 03 4f 4b       	movw   $0x4b4f,(%ebx)
 8049fbe:	c6 43 02 00          	movb   $0x0,0x2(%ebx)
 8049fc2:	b8 00 00 00 00       	mov    $0x0,%eax
 8049fc7:	83 c4 28             	add    $0x28,%esp
 8049fca:	5b                   	pop    %ebx
 8049fcb:	c3                   	ret    
 8049fcc:	90                   	nop
 8049fcd:	90                   	nop
 8049fce:	90                   	nop
 8049fcf:	90                   	nop

08049fd0 <__libc_csu_init>:
 8049fd0:	55                   	push   %ebp
 8049fd1:	57                   	push   %edi
 8049fd2:	56                   	push   %esi
 8049fd3:	53                   	push   %ebx
 8049fd4:	e8 69 00 00 00       	call   804a042 <__i686.get_pc_thunk.bx>
 8049fd9:	81 c3 1b 20 00 00    	add    $0x201b,%ebx
 8049fdf:	83 ec 1c             	sub    $0x1c,%esp
 8049fe2:	8b 6c 24 30          	mov    0x30(%esp),%ebp
 8049fe6:	8d bb 20 ff ff ff    	lea    -0xe0(%ebx),%edi
 8049fec:	e8 33 e7 ff ff       	call   8048724 <_init>
 8049ff1:	8d 83 20 ff ff ff    	lea    -0xe0(%ebx),%eax
 8049ff7:	29 c7                	sub    %eax,%edi
 8049ff9:	c1 ff 02             	sar    $0x2,%edi
 8049ffc:	85 ff                	test   %edi,%edi
 8049ffe:	74 29                	je     804a029 <__libc_csu_init+0x59>
 804a000:	31 f6                	xor    %esi,%esi
 804a002:	8d b6 00 00 00 00    	lea    0x0(%esi),%esi
 804a008:	8b 44 24 38          	mov    0x38(%esp),%eax
 804a00c:	89 2c 24             	mov    %ebp,(%esp)
 804a00f:	89 44 24 08          	mov    %eax,0x8(%esp)
 804a013:	8b 44 24 34          	mov    0x34(%esp),%eax
 804a017:	89 44 24 04          	mov    %eax,0x4(%esp)
 804a01b:	ff 94 b3 20 ff ff ff 	call   *-0xe0(%ebx,%esi,4)
 804a022:	83 c6 01             	add    $0x1,%esi
 804a025:	39 fe                	cmp    %edi,%esi
 804a027:	75 df                	jne    804a008 <__libc_csu_init+0x38>
 804a029:	83 c4 1c             	add    $0x1c,%esp
 804a02c:	5b                   	pop    %ebx
 804a02d:	5e                   	pop    %esi
 804a02e:	5f                   	pop    %edi
 804a02f:	5d                   	pop    %ebp
 804a030:	c3                   	ret    
 804a031:	eb 0d                	jmp    804a040 <__libc_csu_fini>
 804a033:	90                   	nop
 804a034:	90                   	nop
 804a035:	90                   	nop
 804a036:	90                   	nop
 804a037:	90                   	nop
 804a038:	90                   	nop
 804a039:	90                   	nop
 804a03a:	90                   	nop
 804a03b:	90                   	nop
 804a03c:	90                   	nop
 804a03d:	90                   	nop
 804a03e:	90                   	nop
 804a03f:	90                   	nop

0804a040 <__libc_csu_fini>:
 804a040:	f3 c3                	repz ret 

0804a042 <__i686.get_pc_thunk.bx>:
 804a042:	8b 1c 24             	mov    (%esp),%ebx
 804a045:	c3                   	ret    
 804a046:	90                   	nop
 804a047:	90                   	nop
 804a048:	90                   	nop
 804a049:	90                   	nop
 804a04a:	90                   	nop
 804a04b:	90                   	nop
 804a04c:	90                   	nop
 804a04d:	90                   	nop
 804a04e:	90                   	nop
 804a04f:	90                   	nop

0804a050 <__do_global_ctors_aux>:
 804a050:	55                   	push   %ebp
 804a051:	89 e5                	mov    %esp,%ebp
 804a053:	53                   	push   %ebx
 804a054:	83 ec 04             	sub    $0x4,%esp
 804a057:	a1 14 bf 04 08       	mov    0x804bf14,%eax
 804a05c:	83 f8 ff             	cmp    $0xffffffff,%eax
 804a05f:	74 13                	je     804a074 <__do_global_ctors_aux+0x24>
 804a061:	bb 14 bf 04 08       	mov    $0x804bf14,%ebx
 804a066:	66 90                	xchg   %ax,%ax
 804a068:	83 eb 04             	sub    $0x4,%ebx
 804a06b:	ff d0                	call   *%eax
 804a06d:	8b 03                	mov    (%ebx),%eax
 804a06f:	83 f8 ff             	cmp    $0xffffffff,%eax
 804a072:	75 f4                	jne    804a068 <__do_global_ctors_aux+0x18>
 804a074:	83 c4 04             	add    $0x4,%esp
 804a077:	5b                   	pop    %ebx
 804a078:	5d                   	pop    %ebp
 804a079:	c3                   	ret    
 804a07a:	90                   	nop
 804a07b:	90                   	nop

Disassembly of section .fini:

0804a07c <_fini>:
 804a07c:	53                   	push   %ebx
 804a07d:	83 ec 08             	sub    $0x8,%esp
 804a080:	e8 00 00 00 00       	call   804a085 <_fini+0x9>
 804a085:	5b                   	pop    %ebx
 804a086:	81 c3 6f 1f 00 00    	add    $0x1f6f,%ebx
 804a08c:	e8 cf e8 ff ff       	call   8048960 <__do_global_dtors_aux>
 804a091:	83 c4 08             	add    $0x8,%esp
 804a094:	5b                   	pop    %ebx
 804a095:	c3                   	ret    
